Certificate:
    Data:
        Version: 3 (0x2)
        Serial Number: 1 (0x1)
    Signature Algorithm: sha256WithRSAEncryption
        Issuer: C=US, ST=CA, L=Sunnyvale, O=Real Time Innovations, CN=RTI CA/emailAddress=secure@rti.com
        Validity
            Not Before: Jun  8 10:51:41 2023 GMT
            Not After : Jun  5 10:51:41 2033 GMT
        Subject: C=US, ST=CA, O=Real Time Innovations, CN=perftest/emailAddress=pub@rti.com
        Subject Public Key Info:
            Public Key Algorithm: rsaEncryption
                Public-Key: (2048 bit)
                Modulus:
                    00:c6:a6:11:b6:86:2e:e8:e0:5c:59:47:3f:87:d3:
                    91:4c:8d:5e:f2:a6:2d:8d:eb:70:2a:d7:16:60:bd:
                    50:2b:36:90:bb:32:ac:f9:fb:cc:76:5b:3e:5b:44:
                    29:88:cf:e1:c3:e2:bc:81:7a:d7:a5:1f:94:cb:35:
                    5a:bd:c9:c7:ef:b5:ab:cc:17:da:0b:29:9f:10:6d:
                    66:42:56:88:e0:1e:9b:a1:62:15:ef:f4:52:0f:41:
                    3a:b8:fd:2f:88:42:b0:7e:38:06:10:fd:dc:70:7e:
                    15:bc:7e:1a:ff:75:50:26:75:43:c6:df:a2:ed:f7:
                    07:2e:12:76:60:2a:0e:82:a3:fc:fd:5b:9d:33:45:
                    c6:37:11:d3:1f:da:4b:82:fa:00:59:4a:ef:37:92:
                    b6:d2:5b:41:17:b0:b3:c0:1c:9f:77:c5:03:3d:13:
                    1a:be:f0:e5:cc:67:0f:5f:cf:a0:5f:a2:8c:a6:11:
                    55:49:0f:52:7a:3a:a4:21:52:5d:43:ab:88:b1:c9:
                    51:1f:35:17:98:b9:cb:2d:b8:b6:75:d2:bb:87:8e:
                    ed:f6:fb:82:44:af:c3:42:38:15:2c:fd:f3:1a:7d:
                    0b:3e:a2:cb:67:35:93:f4:54:92:96:64:26:c1:9a:
                    c1:61:1a:c8:06:44:9e:83:fc:50:0d:70:ad:81:ab:
                    e8:75
                Exponent: 65537 (0x10001)
        X509v3 extensions:
            X509v3 Basic Constraints: 
                CA:FALSE
            Netscape Comment: 
                OpenSSL Generated Certificate
            X509v3 Subject Key Identifier: 
                0C:4E:4D:AF:18:14:64:0E:D6:D1:47:76:1B:A3:56:41:AB:0C:F3:E6
            X509v3 Authority Key Identifier: 
                DirName:/C=US/ST=CA/L=Sunnyvale/O=Real Time Innovations/CN=RTI CA/emailAddress=secure@rti.com
                serial:BD:E3:AD:46:70:24:9D:EB

    Signature Algorithm: sha256WithRSAEncryption
         60:af:2e:f1:3c:9c:2e:5e:7b:3f:40:98:ec:c9:9a:a4:7a:c1:
         9b:87:d5:e5:d6:ae:6c:b0:86:84:a5:50:89:c1:50:8a:4b:a6:
         ec:76:51:4d:24:ff:ff:df:e1:10:fd:f8:d1:9e:2f:2d:38:3a:
         a0:6a:5d:12:81:f9:b6:55:54:63:dc:f5:76:6d:55:eb:25:61:
         0e:f2:96:7a:6a:b2:83:cd:dd:0b:a3:1f:68:b2:3b:95:bb:bf:
         bf:2c:b4:e5:a6:98:a4:f6:d2:ad:aa:42:c5:a5:9f:ab:00:68:
         5f:39:65:b1:cf:b7:38:d0:67:ad:0c:b6:7d:b4:32:6c:1d:93:
         fe:a9:cc:37:94:2a:75:42:fb:e7:62:2a:4f:4d:60:d3:fd:56:
         ec:99:4a:7f:ce:f4:b2:3a:2d:47:f2:4b:f9:46:be:e4:83:ae:
         a8:4f:12:7f:ff:64:1e:b1:b1:a4:e2:91:ca:11:3f:00:df:44:
         44:7b:58:c4:09:cb:c3:a8:15:7a:0c:4c:6f:52:8a:84:0e:72:
         fd:ee:4e:8e:5b:ff:9a:f3:db:09:10:75:cc:09:bf:bb:a1:39:
         65:e9:66:24:fc:3d:4b:5e:99:df:d3:a3:3d:68:bd:a3:c2:3f:
         d8:2b:7e:29:40:9d:dc:6f:fc:93:b6:28:80:8c:e8:bd:45:06:
         72:e1:43:80
-----BEGIN CERTIFICATE-----
MIIEXTCCA0WgAwIBAgIBATANBgkqhkiG9w0BAQsFADB+MQswCQYDVQQGEwJVUzEL
MAkGA1UECAwCQ0ExEjAQBgNVBAcMCVN1bm55dmFsZTEeMBwGA1UECgwVUmVhbCBU
aW1lIElubm92YXRpb25zMQ8wDQYDVQQDDAZSVEkgQ0ExHTAbBgkqhkiG9w0BCQEW
DnNlY3VyZUBydGkuY29tMB4XDTIzMDYwODEwNTE0MVoXDTMzMDYwNTEwNTE0MVow
aTELMAkGA1UEBhMCVVMxCzAJBgNVBAgMAkNBMR4wHAYDVQQKDBVSZWFsIFRpbWUg
SW5ub3ZhdGlvbnMxETAPBgNVBAMMCHBlcmZ0ZXN0MRowGAYJKoZIhvcNAQkBFgtw
dWJAcnRpLmNvbTCCASIwDQYJKoZIhvcNAQEBBQADggEPADCCAQoCggEBAMamEbaG
LujgXFlHP4fTkUyNXvKmLY3rcCrXFmC9UCs2kLsyrPn7zHZbPltEKYjP4cPivIF6
16UflMs1Wr3Jx++1q8wX2gspnxBtZkJWiOAem6FiFe/0Ug9BOrj9L4hCsH44BhD9
3HB+Fbx+Gv91UCZ1Q8bfou33By4SdmAqDoKj/P1bnTNFxjcR0x/aS4L6AFlK7zeS
ttJbQRews8Acn3fFAz0TGr7w5cxnD1/PoF+ijKYRVUkPUno6pCFSXUOriLHJUR81
F5i5yy24tnXSu4eO7fb7gkSvw0I4FSz98xp9Cz6iy2c1k/RUkpZkJsGawWEayAZE
noP8UA1wrYGr6HUCAwEAAaOB+jCB9zAJBgNVHRMEAjAAMCwGCWCGSAGG+EIBDQQf
Fh1PcGVuU1NMIEdlbmVyYXRlZCBDZXJ0aWZpY2F0ZTAdBgNVHQ4EFgQUDE5NrxgU
ZA7W0Ud2G6NWQasM8+YwgZwGA1UdIwSBlDCBkaGBg6SBgDB+MQswCQYDVQQGEwJV
UzELMAkGA1UECAwCQ0ExEjAQBgNVBAcMCVN1bm55dmFsZTEeMBwGA1UECgwVUmVh
bCBUaW1lIElubm92YXRpb25zMQ8wDQYDVQQDDAZSVEkgQ0ExHTAbBgkqhkiG9w0B
CQEWDnNlY3VyZUBydGkuY29tggkAveOtRnAkneswDQYJKoZIhvcNAQELBQADggEB
AGCvLvE8nC5eez9AmOzJmqR6wZuH1eXWrmywhoSlUInBUIpLpux2UU0k///f4RD9
+NGeLy04OqBqXRKB+bZVVGPc9XZtVeslYQ7ylnpqsoPN3QujH2iyO5W7v78stOWm
mKT20q2qQsWln6sAaF85ZbHPtzjQZ60Mtn20Mmwdk/6pzDeUKnVC++diKk9NYNP9
VuyZSn/O9LI6LUfyS/lGvuSDrqhPEn//ZB6xsaTikcoRPwDfRER7WMQJy8OoFXoM
TG9SioQOcv3uTo5b/5rz2wkQdcwJv7uhOWXpZiT8PUtemd/Toz1ovaPCP9grfilA
ndxv/JO2KICM6L1FBnLhQ4A=
-----END CERTIFICATE-----
