Certificate:
    Data:
        Version: 3 (0x2)
        Serial Number: 1 (0x1)
    Signature Algorithm: sha256WithRSAEncryption
        Issuer: C=US, ST=CA, L=Sunnyvale, O=Real Time Innovations, CN=RTI CA/emailAddress=secure@rti.com
        Validity
            Not Before: Sep 28 10:03:12 2018 GMT
            Not After : Sep 25 10:03:12 2028 GMT
        Subject: C=US, ST=CA, O=Real Time Innovations, CN=perftest/emailAddress=pub@rti.com
        Subject Public Key Info:
            Public Key Algorithm: rsaEncryption
                Public-Key: (2048 bit)
                Modulus:
                    00:e3:cc:c1:e8:b9:bf:c9:45:95:dd:02:ff:5e:d9:
                    cb:06:a8:50:f1:04:de:a2:8b:62:19:35:73:ec:c6:
                    c0:a7:1a:43:15:ee:82:89:06:2f:7a:ab:c9:62:3a:
                    4c:24:70:f0:68:56:80:63:10:d1:a9:8a:f0:25:6c:
                    1d:1b:ef:4b:af:11:73:12:7a:2a:34:39:58:42:ef:
                    f7:61:13:7f:d8:71:42:7f:c9:9b:41:1e:e4:2d:ee:
                    26:82:76:5b:de:b2:0d:23:88:cb:b1:22:8d:42:cc:
                    b9:30:24:16:fa:5e:58:e4:5a:1d:6e:8b:4b:18:6c:
                    ba:35:65:e9:32:37:94:1a:5c:82:0c:a8:5c:cf:8c:
                    2b:d4:5e:0a:49:6e:90:74:0e:77:78:b3:17:44:38:
                    97:f4:4c:78:cf:dd:7c:3c:67:49:bf:7b:05:68:93:
                    dc:50:ee:10:6e:8d:57:45:c0:bc:e9:38:9f:c6:d4:
                    73:2b:ce:40:04:c3:b0:63:6c:89:a1:58:0e:06:6f:
                    47:38:ce:e3:18:48:98:60:3c:76:89:22:ee:64:ce:
                    e9:c4:ee:8a:84:87:c3:06:72:0d:8b:ea:79:04:9d:
                    62:d5:54:e5:b8:48:e3:07:09:ba:7d:c8:ff:97:11:
                    d6:18:6a:a2:ec:96:0e:9b:d6:d1:12:31:5d:26:c6:
                    24:27
                Exponent: 65537 (0x10001)
        X509v3 extensions:
            X509v3 Basic Constraints: 
                CA:FALSE
            Netscape Comment: 
                OpenSSL Generated Certificate
            X509v3 Subject Key Identifier: 
                3B:A1:7F:4F:A7:2A:04:08:6B:76:5E:F1:2A:21:B9:B0:DF:3A:04:DB
            X509v3 Authority Key Identifier: 
                DirName:/C=US/ST=CA/L=Sunnyvale/O=Real Time Innovations/CN=RTI CA/emailAddress=secure@rti.com
                serial:8F:41:EA:D2:2B:2C:E3:21

    Signature Algorithm: sha256WithRSAEncryption
         7f:84:80:2b:9e:27:8d:c0:47:b9:24:f6:5f:d7:f7:25:1f:25:
         24:27:df:18:74:d5:10:c1:c8:ac:79:0c:66:56:f8:88:49:0b:
         f4:ac:94:cc:58:26:6e:4a:27:04:a8:81:f7:8b:d1:24:4e:a4:
         fc:04:4a:9e:4f:d0:36:62:c9:70:d4:c2:4e:a4:ed:4b:74:87:
         0a:6c:81:80:cf:f4:07:82:79:87:60:de:95:6e:15:01:04:28:
         bc:22:48:1f:20:00:08:44:c1:e1:61:27:57:b1:50:10:6a:9b:
         9b:62:ee:c8:55:76:2b:03:54:db:ee:ed:3e:44:30:cd:5c:9f:
         dd:27:9f:94:54:93:ed:3d:ab:fd:e7:a2:21:b5:39:67:58:7b:
         69:c5:23:e5:00:b6:7a:35:11:48:b3:93:9e:1a:cb:96:07:2f:
         f1:83:e7:3f:c9:05:f1:b6:53:ee:fd:da:5a:8d:d9:84:e9:34:
         47:75:4d:e2:c8:ec:da:16:34:61:dd:fa:ea:2b:3d:57:d8:8d:
         c4:3e:e4:e5:f5:c6:d5:cc:08:f4:6f:a7:0f:d8:56:44:93:4f:
         98:ad:4e:b7:c7:e1:53:9a:89:4f:c9:23:bb:e7:fc:4a:c6:51:
         7d:de:96:88:02:d7:85:45:28:2b:3a:ed:dd:df:bd:dc:7a:dc:
         1b:5a:59:22
-----BEGIN CERTIFICATE-----
MIIEXTCCA0WgAwIBAgIBATANBgkqhkiG9w0BAQsFADB+MQswCQYDVQQGEwJVUzEL
MAkGA1UECAwCQ0ExEjAQBgNVBAcMCVN1bm55dmFsZTEeMBwGA1UECgwVUmVhbCBU
aW1lIElubm92YXRpb25zMQ8wDQYDVQQDDAZSVEkgQ0ExHTAbBgkqhkiG9w0BCQEW
DnNlY3VyZUBydGkuY29tMB4XDTE4MDkyODEwMDMxMloXDTI4MDkyNTEwMDMxMlow
aTELMAkGA1UEBhMCVVMxCzAJBgNVBAgMAkNBMR4wHAYDVQQKDBVSZWFsIFRpbWUg
SW5ub3ZhdGlvbnMxETAPBgNVBAMMCHBlcmZ0ZXN0MRowGAYJKoZIhvcNAQkBFgtw
dWJAcnRpLmNvbTCCASIwDQYJKoZIhvcNAQEBBQADggEPADCCAQoCggEBAOPMwei5
v8lFld0C/17ZywaoUPEE3qKLYhk1c+zGwKcaQxXugokGL3qryWI6TCRw8GhWgGMQ
0amK8CVsHRvvS68RcxJ6KjQ5WELv92ETf9hxQn/Jm0Ee5C3uJoJ2W96yDSOIy7Ei
jULMuTAkFvpeWORaHW6LSxhsujVl6TI3lBpcggyoXM+MK9ReCklukHQOd3izF0Q4
l/RMeM/dfDxnSb97BWiT3FDuEG6NV0XAvOk4n8bUcyvOQATDsGNsiaFYDgZvRzjO
4xhImGA8doki7mTO6cTuioSHwwZyDYvqeQSdYtVU5bhI4wcJun3I/5cR1hhqouyW
DpvW0RIxXSbGJCcCAwEAAaOB+jCB9zAJBgNVHRMEAjAAMCwGCWCGSAGG+EIBDQQf
Fh1PcGVuU1NMIEdlbmVyYXRlZCBDZXJ0aWZpY2F0ZTAdBgNVHQ4EFgQUO6F/T6cq
BAhrdl7xKiG5sN86BNswgZwGA1UdIwSBlDCBkaGBg6SBgDB+MQswCQYDVQQGEwJV
UzELMAkGA1UECAwCQ0ExEjAQBgNVBAcMCVN1bm55dmFsZTEeMBwGA1UECgwVUmVh
bCBUaW1lIElubm92YXRpb25zMQ8wDQYDVQQDDAZSVEkgQ0ExHTAbBgkqhkiG9w0B
CQEWDnNlY3VyZUBydGkuY29tggkAj0Hq0iss4yEwDQYJKoZIhvcNAQELBQADggEB
AH+EgCueJ43AR7kk9l/X9yUfJSQn3xh01RDByKx5DGZW+IhJC/SslMxYJm5KJwSo
gfeL0SROpPwESp5P0DZiyXDUwk6k7Ut0hwpsgYDP9AeCeYdg3pVuFQEEKLwiSB8g
AAhEweFhJ1exUBBqm5ti7shVdisDVNvu7T5EMM1cn90nn5RUk+09q/3noiG1OWdY
e2nFI+UAtno1EUizk54ay5YHL/GD5z/JBfG2U+792lqN2YTpNEd1TeLI7NoWNGHd
+uorPVfYjcQ+5OX1xtXMCPRvpw/YVkSTT5itTrfH4VOaiU/JI7vn/ErGUX3elogC
14VFKCs67d3fvdx63BtaWSI=
-----END CERTIFICATE-----
