Certificate:
    Data:
        Version: 3 (0x2)
        Serial Number: 1 (0x1)
    Signature Algorithm: sha256WithRSAEncryption
        Issuer: C=US, ST=CA, L=Sunnyvale, O=Real Time Innovations, CN=RTI CA/emailAddress=secure@rti.com
        Validity
            Not Before: Feb 25 19:20:47 2019 GMT
            Not After : Feb 22 19:20:47 2029 GMT
        Subject: C=US, ST=CA, O=Real Time Innovations, CN=perftest/emailAddress=pub@rti.com
        Subject Public Key Info:
            Public Key Algorithm: rsaEncryption
                Public-Key: (2048 bit)
                Modulus:
                    00:b9:ca:fe:83:cf:57:b5:87:9d:74:e7:fd:73:2b:
                    82:0c:16:a9:2a:8b:0d:a8:f0:53:97:cf:39:f3:02:
                    f4:2f:89:85:14:93:a2:be:30:2f:d0:cd:bc:7a:d5:
                    ac:bc:6b:2a:39:12:7c:3d:9e:f0:39:aa:1d:7c:19:
                    b4:46:e7:b2:7b:35:40:de:eb:27:4c:ad:f2:b7:c0:
                    2d:8e:f2:a6:ae:d4:76:92:db:a2:0d:8f:e8:10:5c:
                    12:3a:59:d0:93:ca:16:57:af:4a:da:e9:6b:d0:c3:
                    ef:6f:b8:8c:5e:27:02:9b:e1:a9:9e:6c:6c:3e:83:
                    a0:12:05:5f:16:05:2e:8d:ed:e6:bd:74:f9:06:f2:
                    03:60:c5:bd:7a:30:1e:2e:fb:5c:95:1b:bb:74:41:
                    02:32:30:2e:76:13:42:66:e4:38:87:e8:8d:0c:9d:
                    db:09:df:24:7d:3c:ed:b3:b8:d6:f3:bd:f9:de:b5:
                    62:a0:6b:a5:e0:a8:1f:af:9c:0e:c9:d0:00:c1:e1:
                    85:30:80:ce:00:3d:76:83:51:e6:94:28:5f:e7:e0:
                    20:d2:f4:a0:bf:0e:c6:ef:e2:c6:65:5b:2c:cf:6b:
                    f9:20:d6:2f:46:d0:8a:a1:36:83:85:6d:f4:60:f3:
                    37:84:74:c6:ca:e3:39:29:78:3c:a3:da:b5:4d:78:
                    c0:4d
                Exponent: 65537 (0x10001)
        X509v3 extensions:
            X509v3 Basic Constraints: 
                CA:FALSE
            Netscape Comment: 
                OpenSSL Generated Certificate
            X509v3 Subject Key Identifier: 
                7B:60:6E:1B:D0:E2:52:FF:BC:8C:75:36:1D:DA:D7:EF:CA:9B:E6:C3
            X509v3 Authority Key Identifier: 
                DirName:/C=US/ST=CA/L=Sunnyvale/O=Real Time Innovations/CN=RTI CA/emailAddress=secure@rti.com
                serial:9C:DF:4D:80:F7:6F:74:84

    Signature Algorithm: sha256WithRSAEncryption
         99:e1:ad:2c:df:e3:aa:c6:84:78:57:d9:71:c0:bb:18:79:2b:
         b0:f6:74:57:98:48:af:2a:2e:c4:38:8e:fc:29:b5:59:39:99:
         2e:c2:35:da:3d:88:86:f1:53:04:60:6b:92:a0:84:03:65:dd:
         b4:6e:d0:ea:f5:a8:08:d3:7a:5e:2b:33:91:36:61:44:3b:a1:
         84:28:6e:12:f5:92:16:4d:df:27:99:b6:20:17:55:32:f7:01:
         b5:dd:86:dc:bf:ee:c6:5b:40:b0:49:ba:a3:d4:5f:e6:1f:5c:
         6a:e2:a7:a6:f2:c4:72:60:5d:45:ec:3d:1e:5c:2f:97:78:68:
         61:08:2e:6a:da:df:41:14:a3:c7:10:76:6f:62:7d:6c:34:3a:
         d3:42:ad:71:25:be:ab:bf:1f:33:77:a6:64:1a:eb:a5:6a:67:
         5e:0a:6a:75:de:06:3e:87:d4:5c:41:84:4b:14:de:d3:3a:f1:
         4b:d0:03:b6:df:e7:7e:c0:ce:bd:c3:74:d0:0e:5c:f9:42:5e:
         52:de:db:1f:dc:37:6e:de:7c:ef:e9:7a:22:cd:ac:c4:17:d5:
         a8:8c:e3:a2:a6:14:2a:72:fb:86:91:78:63:3f:18:c7:de:6c:
         3c:e5:10:32:5b:a8:2c:e6:40:8a:2f:9a:1d:44:50:55:a7:73:
         df:08:ee:7b
-----BEGIN CERTIFICATE-----
MIIEXTCCA0WgAwIBAgIBATANBgkqhkiG9w0BAQsFADB+MQswCQYDVQQGEwJVUzEL
MAkGA1UECAwCQ0ExEjAQBgNVBAcMCVN1bm55dmFsZTEeMBwGA1UECgwVUmVhbCBU
aW1lIElubm92YXRpb25zMQ8wDQYDVQQDDAZSVEkgQ0ExHTAbBgkqhkiG9w0BCQEW
DnNlY3VyZUBydGkuY29tMB4XDTE5MDIyNTE5MjA0N1oXDTI5MDIyMjE5MjA0N1ow
aTELMAkGA1UEBhMCVVMxCzAJBgNVBAgMAkNBMR4wHAYDVQQKDBVSZWFsIFRpbWUg
SW5ub3ZhdGlvbnMxETAPBgNVBAMMCHBlcmZ0ZXN0MRowGAYJKoZIhvcNAQkBFgtw
dWJAcnRpLmNvbTCCASIwDQYJKoZIhvcNAQEBBQADggEPADCCAQoCggEBALnK/oPP
V7WHnXTn/XMrggwWqSqLDajwU5fPOfMC9C+JhRSTor4wL9DNvHrVrLxrKjkSfD2e
8DmqHXwZtEbnsns1QN7rJ0yt8rfALY7ypq7UdpLbog2P6BBcEjpZ0JPKFlevStrp
a9DD72+4jF4nApvhqZ5sbD6DoBIFXxYFLo3t5r10+QbyA2DFvXowHi77XJUbu3RB
AjIwLnYTQmbkOIfojQyd2wnfJH087bO41vO9+d61YqBrpeCoH6+cDsnQAMHhhTCA
zgA9doNR5pQoX+fgINL0oL8Oxu/ixmVbLM9r+SDWL0bQiqE2g4Vt9GDzN4R0xsrj
OSl4PKPatU14wE0CAwEAAaOB+jCB9zAJBgNVHRMEAjAAMCwGCWCGSAGG+EIBDQQf
Fh1PcGVuU1NMIEdlbmVyYXRlZCBDZXJ0aWZpY2F0ZTAdBgNVHQ4EFgQUe2BuG9Di
Uv+8jHU2HdrX78qb5sMwgZwGA1UdIwSBlDCBkaGBg6SBgDB+MQswCQYDVQQGEwJV
UzELMAkGA1UECAwCQ0ExEjAQBgNVBAcMCVN1bm55dmFsZTEeMBwGA1UECgwVUmVh
bCBUaW1lIElubm92YXRpb25zMQ8wDQYDVQQDDAZSVEkgQ0ExHTAbBgkqhkiG9w0B
CQEWDnNlY3VyZUBydGkuY29tggkAnN9NgPdvdIQwDQYJKoZIhvcNAQELBQADggEB
AJnhrSzf46rGhHhX2XHAuxh5K7D2dFeYSK8qLsQ4jvwptVk5mS7CNdo9iIbxUwRg
a5KghANl3bRu0Or1qAjTel4rM5E2YUQ7oYQobhL1khZN3yeZtiAXVTL3AbXdhty/
7sZbQLBJuqPUX+YfXGrip6byxHJgXUXsPR5cL5d4aGEILmra30EUo8cQdm9ifWw0
OtNCrXElvqu/HzN3pmQa66VqZ14KanXeBj6H1FxBhEsU3tM68UvQA7bf537Azr3D
dNAOXPlCXlLe2x/cN27efO/peiLNrMQX1aiM46KmFCpy+4aReGM/GMfebDzlEDJb
qCzmQIovmh1EUFWnc98I7ns=
-----END CERTIFICATE-----
