Certificate:
    Data:
        Version: 3 (0x2)
        Serial Number: 1 (0x1)
    Signature Algorithm: sha256WithRSAEncryption
        Issuer: C=US, ST=CA, L=Sunnyvale, O=Real Time Innovations, CN=RTI CA/emailAddress=secure@rti.com
        Validity
            Not Before: Sep 28 09:49:07 2018 GMT
            Not After : Sep 25 09:49:07 2028 GMT
        Subject: C=US, ST=CA, O=Real Time Innovations, CN=perftest/emailAddress=pub@rti.com
        Subject Public Key Info:
            Public Key Algorithm: rsaEncryption
                Public-Key: (2048 bit)
                Modulus:
                    00:b5:66:af:31:0f:b6:14:55:9e:a8:39:40:3f:48:
                    e5:32:50:62:c5:f2:8e:2e:ec:72:b5:96:b1:4c:e7:
                    0f:b4:36:e0:ee:2d:f7:93:95:1c:09:2d:63:1d:ec:
                    22:e5:a6:4a:c2:a5:b9:bd:ec:eb:c7:ea:77:46:7c:
                    0f:ce:16:4f:4f:e5:78:7c:13:50:55:79:f4:e2:0d:
                    2b:0b:b7:21:4d:d8:dc:b0:1f:ea:c6:2e:55:79:f9:
                    a6:e7:d7:b6:56:f6:6c:af:1b:99:7f:61:e1:26:88:
                    f8:5e:78:31:45:6f:1e:35:05:b0:f0:e1:51:49:fb:
                    c8:13:2d:52:55:89:0a:79:20:71:e9:44:aa:b1:33:
                    eb:05:28:86:23:06:4b:11:5c:eb:8b:a5:65:69:92:
                    4a:76:ae:a6:e8:ce:1b:64:3d:e0:e5:e0:29:2b:ff:
                    63:16:71:b3:9b:9f:94:a0:ca:12:6d:5f:46:bb:68:
                    9a:ae:77:d1:7e:32:bb:85:e1:e9:87:37:8e:35:d8:
                    54:7d:1d:05:2a:0f:04:fc:8f:b3:a6:62:95:fc:e8:
                    76:4a:22:54:f9:c5:17:d3:f2:93:e3:60:dd:a9:06:
                    67:8a:ae:5e:4f:da:95:26:3a:ba:f6:fd:31:51:0a:
                    98:16:94:75:7b:ae:b7:f7:c0:a9:a7:ff:a3:27:fd:
                    d8:47
                Exponent: 65537 (0x10001)
        X509v3 extensions:
            X509v3 Basic Constraints: 
                CA:FALSE
            Netscape Comment: 
                OpenSSL Generated Certificate
            X509v3 Subject Key Identifier: 
                45:BA:72:6D:AF:5B:EA:7C:79:02:1A:FD:E3:99:BA:D8:69:62:FC:84
            X509v3 Authority Key Identifier: 
                DirName:/C=US/ST=CA/L=Sunnyvale/O=Real Time Innovations/CN=RTI CA/emailAddress=secure@rti.com
                serial:97:01:E8:9D:EF:04:0F:91

    Signature Algorithm: sha256WithRSAEncryption
         5f:ea:26:bb:82:f6:ee:99:f7:32:6c:b2:60:24:95:3d:b6:4a:
         88:b3:9c:e7:d7:fd:a6:c2:fe:eb:ad:f0:ca:7e:1e:a7:c2:c8:
         48:51:34:6e:1e:a0:01:eb:d9:e0:e4:45:ba:cb:02:b2:c0:7b:
         0f:cf:cd:70:63:49:df:b9:ee:a6:0f:3c:2c:9b:f0:7f:e5:46:
         ac:2b:0e:db:26:44:3c:2b:43:52:f0:f7:b7:55:bc:8d:68:e2:
         ab:4f:f3:eb:c0:81:d7:1e:06:9d:f0:2c:40:4f:6b:9f:9b:c0:
         d5:74:96:f5:73:1f:61:3d:e8:54:b7:de:0e:15:2e:e4:b4:37:
         d9:51:09:27:79:07:b9:9a:59:b5:d7:b1:2b:c3:2f:99:c2:b3:
         7c:7c:de:ed:30:a2:0c:65:f7:7f:3c:5c:b6:ee:91:fd:3c:31:
         3c:75:e4:6b:ef:a5:59:09:c9:dd:51:e7:62:de:25:9d:7e:e6:
         5b:94:45:9c:18:69:9b:01:52:b5:0e:3f:e4:13:e4:57:0a:5e:
         0d:a0:d5:fc:dc:66:0e:48:93:f3:93:9c:94:f5:c9:e4:d4:57:
         dc:b9:1c:a1:8a:34:5a:af:c3:87:34:8f:5f:d1:d2:e1:8b:62:
         0c:2e:77:0b:ac:2b:73:a7:75:e6:7f:02:a1:56:37:fd:bb:ce:
         11:e5:44:3d
-----BEGIN CERTIFICATE-----
MIIEXTCCA0WgAwIBAgIBATANBgkqhkiG9w0BAQsFADB+MQswCQYDVQQGEwJVUzEL
MAkGA1UECAwCQ0ExEjAQBgNVBAcMCVN1bm55dmFsZTEeMBwGA1UECgwVUmVhbCBU
aW1lIElubm92YXRpb25zMQ8wDQYDVQQDDAZSVEkgQ0ExHTAbBgkqhkiG9w0BCQEW
DnNlY3VyZUBydGkuY29tMB4XDTE4MDkyODA5NDkwN1oXDTI4MDkyNTA5NDkwN1ow
aTELMAkGA1UEBhMCVVMxCzAJBgNVBAgMAkNBMR4wHAYDVQQKDBVSZWFsIFRpbWUg
SW5ub3ZhdGlvbnMxETAPBgNVBAMMCHBlcmZ0ZXN0MRowGAYJKoZIhvcNAQkBFgtw
dWJAcnRpLmNvbTCCASIwDQYJKoZIhvcNAQEBBQADggEPADCCAQoCggEBALVmrzEP
thRVnqg5QD9I5TJQYsXyji7scrWWsUznD7Q24O4t95OVHAktYx3sIuWmSsKlub3s
68fqd0Z8D84WT0/leHwTUFV59OINKwu3IU3Y3LAf6sYuVXn5pufXtlb2bK8bmX9h
4SaI+F54MUVvHjUFsPDhUUn7yBMtUlWJCnkgcelEqrEz6wUohiMGSxFc64ulZWmS
SnaupujOG2Q94OXgKSv/YxZxs5uflKDKEm1fRrtomq530X4yu4Xh6Yc3jjXYVH0d
BSoPBPyPs6ZilfzodkoiVPnFF9Pyk+Ng3akGZ4quXk/alSY6uvb9MVEKmBaUdXuu
t/fAqaf/oyf92EcCAwEAAaOB+jCB9zAJBgNVHRMEAjAAMCwGCWCGSAGG+EIBDQQf
Fh1PcGVuU1NMIEdlbmVyYXRlZCBDZXJ0aWZpY2F0ZTAdBgNVHQ4EFgQURbpyba9b
6nx5Ahr945m62Gli/IQwgZwGA1UdIwSBlDCBkaGBg6SBgDB+MQswCQYDVQQGEwJV
UzELMAkGA1UECAwCQ0ExEjAQBgNVBAcMCVN1bm55dmFsZTEeMBwGA1UECgwVUmVh
bCBUaW1lIElubm92YXRpb25zMQ8wDQYDVQQDDAZSVEkgQ0ExHTAbBgkqhkiG9w0B
CQEWDnNlY3VyZUBydGkuY29tggkAlwHone8ED5EwDQYJKoZIhvcNAQELBQADggEB
AF/qJruC9u6Z9zJssmAklT22SoiznOfX/abC/uut8Mp+HqfCyEhRNG4eoAHr2eDk
RbrLArLAew/PzXBjSd+57qYPPCyb8H/lRqwrDtsmRDwrQ1Lw97dVvI1o4qtP8+vA
gdceBp3wLEBPa5+bwNV0lvVzH2E96FS33g4VLuS0N9lRCSd5B7maWbXXsSvDL5nC
s3x83u0wogxl9388XLbukf08MTx15GvvpVkJyd1R52LeJZ1+5luURZwYaZsBUrUO
P+QT5FcKXg2g1fzcZg5Ik/OTnJT1yeTUV9y5HKGKNFqvw4c0j1/R0uGLYgwudwus
K3OndeZ/AqFWN/27zhHlRD0=
-----END CERTIFICATE-----
