Certificate:
    Data:
        Version: 3 (0x2)
        Serial Number: 2 (0x2)
    Signature Algorithm: sha256WithRSAEncryption
        Issuer: C=US, ST=CA, L=Sunnyvale, O=Real Time Innovations, CN=RTI CA/emailAddress=secure@rti.com
        Validity
            Not Before: Jun  8 10:51:44 2023 GMT
            Not After : Jun  5 10:51:44 2033 GMT
        Subject: C=US, ST=CA, O=Real Time Innovations, CN=perftest/emailAddress=sub@rti.com
        Subject Public Key Info:
            Public Key Algorithm: rsaEncryption
                Public-Key: (2048 bit)
                Modulus:
                    00:d8:d8:53:36:3f:75:7a:f7:4e:d2:7a:26:ac:b7:
                    77:da:c4:1b:9b:09:ce:0e:8f:67:30:29:f4:c2:dd:
                    64:f3:bc:54:ea:b4:d5:00:45:1e:bc:ab:7c:63:e6:
                    a9:78:43:c6:ad:af:fc:46:a5:38:d9:fd:5b:a4:92:
                    1c:f3:be:d6:88:56:5b:bd:97:2c:b3:18:91:f6:31:
                    c3:6a:3a:df:df:d2:d0:7d:6a:a3:67:fa:fd:fb:99:
                    3a:ab:a6:51:8d:b7:81:89:24:fa:0b:41:e3:69:7e:
                    2c:33:c4:40:a1:ea:50:87:85:24:f7:9d:48:4c:85:
                    c9:49:f5:9d:cf:86:5b:93:6d:c4:4e:36:2c:ba:84:
                    7b:ac:45:95:92:1f:5f:ff:a6:eb:b6:14:d1:ed:9e:
                    2b:de:78:00:9e:9e:44:c1:b4:50:86:84:8e:91:d8:
                    d2:a1:3d:0c:03:28:ad:8c:5c:ec:28:97:93:1d:c6:
                    58:11:e4:ee:e1:6b:a1:af:76:4a:95:5e:84:60:c1:
                    b7:0f:ef:a4:a9:7e:4e:26:5a:b0:58:6c:db:a1:ab:
                    78:76:e7:05:ba:66:9a:c4:b1:a0:92:7c:95:ac:d0:
                    6e:90:88:85:60:ac:0d:83:8c:ae:88:25:8d:59:72:
                    47:fb:9a:29:4c:b3:a3:4b:22:a4:fa:4d:6f:0b:fc:
                    2f:6f
                Exponent: 65537 (0x10001)
        X509v3 extensions:
            X509v3 Basic Constraints: 
                CA:FALSE
            Netscape Comment: 
                OpenSSL Generated Certificate
            X509v3 Subject Key Identifier: 
                5C:26:62:44:BF:35:F6:47:1F:61:E3:43:F6:1A:EC:17:94:99:AF:71
            X509v3 Authority Key Identifier: 
                DirName:/C=US/ST=CA/L=Sunnyvale/O=Real Time Innovations/CN=RTI CA/emailAddress=secure@rti.com
                serial:BD:E3:AD:46:70:24:9D:EB

    Signature Algorithm: sha256WithRSAEncryption
         83:3f:91:af:46:94:07:6f:98:e8:e2:d1:19:83:33:a3:ba:cb:
         59:80:40:10:d6:ed:8f:10:74:a6:fc:39:dd:79:8a:32:06:6c:
         df:2d:88:4d:fb:2d:e6:21:1c:5e:60:1b:95:7f:0a:af:4c:2a:
         41:da:7d:5f:54:3d:71:2d:ee:5c:40:ec:98:3f:25:b5:c2:93:
         d5:60:bf:f9:c4:6c:88:4a:7f:e8:b2:20:86:3e:5d:7f:0e:58:
         84:28:84:57:0f:7c:02:dc:ee:4f:2a:ec:3c:14:06:25:0c:84:
         36:1a:f0:b7:38:b5:fa:00:0c:23:11:23:0a:80:12:73:84:6e:
         0f:8e:ca:31:6b:fd:48:1e:d0:09:f1:40:42:3a:10:d9:44:44:
         57:e9:e3:f5:d7:2d:fc:44:9e:be:b1:2d:f2:f8:b2:58:6e:8e:
         66:bc:b0:17:5e:93:40:86:5c:ba:16:c1:57:26:16:ac:be:02:
         3d:d4:96:3b:c1:af:51:a6:93:b0:3e:76:3e:41:9a:73:9a:47:
         25:f8:90:4a:46:4e:24:53:6f:97:0d:af:47:c5:a1:0e:b4:95:
         8a:99:34:60:7a:30:a4:0d:a1:36:7c:ee:ae:aa:54:7a:c7:4c:
         2d:ab:7c:2a:3d:ab:47:f5:ea:41:cd:d3:b3:e5:4d:9b:14:36:
         38:e7:0b:03
-----BEGIN CERTIFICATE-----
MIIEXTCCA0WgAwIBAgIBAjANBgkqhkiG9w0BAQsFADB+MQswCQYDVQQGEwJVUzEL
MAkGA1UECAwCQ0ExEjAQBgNVBAcMCVN1bm55dmFsZTEeMBwGA1UECgwVUmVhbCBU
aW1lIElubm92YXRpb25zMQ8wDQYDVQQDDAZSVEkgQ0ExHTAbBgkqhkiG9w0BCQEW
DnNlY3VyZUBydGkuY29tMB4XDTIzMDYwODEwNTE0NFoXDTMzMDYwNTEwNTE0NFow
aTELMAkGA1UEBhMCVVMxCzAJBgNVBAgMAkNBMR4wHAYDVQQKDBVSZWFsIFRpbWUg
SW5ub3ZhdGlvbnMxETAPBgNVBAMMCHBlcmZ0ZXN0MRowGAYJKoZIhvcNAQkBFgtz
dWJAcnRpLmNvbTCCASIwDQYJKoZIhvcNAQEBBQADggEPADCCAQoCggEBANjYUzY/
dXr3TtJ6Jqy3d9rEG5sJzg6PZzAp9MLdZPO8VOq01QBFHryrfGPmqXhDxq2v/Eal
ONn9W6SSHPO+1ohWW72XLLMYkfYxw2o639/S0H1qo2f6/fuZOqumUY23gYkk+gtB
42l+LDPEQKHqUIeFJPedSEyFyUn1nc+GW5NtxE42LLqEe6xFlZIfX/+m67YU0e2e
K954AJ6eRMG0UIaEjpHY0qE9DAMorYxc7CiXkx3GWBHk7uFroa92SpVehGDBtw/v
pKl+TiZasFhs26GreHbnBbpmmsSxoJJ8lazQbpCIhWCsDYOMrogljVlyR/uaKUyz
o0sipPpNbwv8L28CAwEAAaOB+jCB9zAJBgNVHRMEAjAAMCwGCWCGSAGG+EIBDQQf
Fh1PcGVuU1NMIEdlbmVyYXRlZCBDZXJ0aWZpY2F0ZTAdBgNVHQ4EFgQUXCZiRL81
9kcfYeND9hrsF5SZr3EwgZwGA1UdIwSBlDCBkaGBg6SBgDB+MQswCQYDVQQGEwJV
UzELMAkGA1UECAwCQ0ExEjAQBgNVBAcMCVN1bm55dmFsZTEeMBwGA1UECgwVUmVh
bCBUaW1lIElubm92YXRpb25zMQ8wDQYDVQQDDAZSVEkgQ0ExHTAbBgkqhkiG9w0B
CQEWDnNlY3VyZUBydGkuY29tggkAveOtRnAkneswDQYJKoZIhvcNAQELBQADggEB
AIM/ka9GlAdvmOji0RmDM6O6y1mAQBDW7Y8QdKb8Od15ijIGbN8tiE37LeYhHF5g
G5V/Cq9MKkHafV9UPXEt7lxA7Jg/JbXCk9Vgv/nEbIhKf+iyIIY+XX8OWIQohFcP
fALc7k8q7DwUBiUMhDYa8Lc4tfoADCMRIwqAEnOEbg+OyjFr/Uge0AnxQEI6ENlE
RFfp4/XXLfxEnr6xLfL4slhujma8sBdek0CGXLoWwVcmFqy+Aj3UljvBr1Gmk7A+
dj5BmnOaRyX4kEpGTiRTb5cNr0fFoQ60lYqZNGB6MKQNoTZ87q6qVHrHTC2rfCo9
q0f16kHN07PlTZsUNjjnCwM=
-----END CERTIFICATE-----
