Certificate:
    Data:
        Version: 3 (0x2)
        Serial Number: 2 (0x2)
    Signature Algorithm: sha256WithRSAEncryption
        Issuer: C=US, ST=CA, L=Sunnyvale, O=Real Time Innovations, CN=RTI CA/emailAddress=secure@rti.com
        Validity
            Not Before: Sep 28 09:49:13 2018 GMT
            Not After : Sep 25 09:49:13 2028 GMT
        Subject: C=US, ST=CA, O=Real Time Innovations, CN=perftest/emailAddress=sub@rti.com
        Subject Public Key Info:
            Public Key Algorithm: rsaEncryption
                Public-Key: (2048 bit)
                Modulus:
                    00:c5:39:01:01:d9:94:a5:26:e5:38:26:98:29:71:
                    7f:3a:bc:81:3d:d3:33:a4:bd:be:4d:e5:32:c2:35:
                    86:a7:03:0a:02:b4:de:5b:26:66:84:8e:bf:d7:cc:
                    b5:e5:77:43:a0:a4:ef:40:72:0d:f0:13:07:f5:47:
                    ef:5c:d9:ad:8e:a9:6e:a7:f4:d2:14:c4:53:23:ef:
                    65:33:88:50:ee:6a:29:46:72:11:f5:8a:30:7c:43:
                    3a:8a:9a:8a:ac:d8:b4:a7:1a:8d:44:cb:02:08:9f:
                    fc:31:7e:ba:e4:33:83:71:ab:53:4b:45:65:c5:e1:
                    67:93:01:3d:ad:2c:7a:e6:bc:12:8a:f2:57:73:fe:
                    96:21:9c:76:6d:ee:17:95:bc:1d:c7:e4:b8:6f:4b:
                    c3:92:ff:b9:f1:70:42:67:fc:c1:ed:8b:bd:46:62:
                    17:77:71:43:d8:58:1c:26:ff:39:d9:00:f0:1a:2b:
                    36:1e:94:e3:51:25:4f:1c:c8:dc:4a:1f:ad:78:08:
                    ac:14:19:ae:29:eb:63:7d:26:52:cf:0d:93:ef:c4:
                    2e:9c:03:76:c2:57:ea:08:06:43:17:df:70:e0:f8:
                    c8:5a:bd:d0:63:81:e5:ec:67:f5:1d:48:26:e3:a9:
                    28:ae:77:49:7a:62:98:67:60:37:7b:d2:d7:7f:85:
                    b3:1b
                Exponent: 65537 (0x10001)
        X509v3 extensions:
            X509v3 Basic Constraints: 
                CA:FALSE
            Netscape Comment: 
                OpenSSL Generated Certificate
            X509v3 Subject Key Identifier: 
                F7:CA:62:BD:57:29:9E:88:79:DB:82:38:ED:04:29:BC:51:65:15:5B
            X509v3 Authority Key Identifier: 
                DirName:/C=US/ST=CA/L=Sunnyvale/O=Real Time Innovations/CN=RTI CA/emailAddress=secure@rti.com
                serial:97:01:E8:9D:EF:04:0F:91

    Signature Algorithm: sha256WithRSAEncryption
         39:9d:ed:39:df:40:a9:c0:21:62:25:58:a8:2e:64:0c:7b:cf:
         14:24:22:f2:d0:16:31:15:73:6a:62:23:83:3d:d5:b3:bd:0e:
         f5:e6:2d:1d:33:59:7d:c5:8c:03:e4:77:81:93:83:f6:b8:58:
         02:39:ef:d4:95:e2:46:d3:5e:38:95:cb:0e:37:b1:d8:32:c8:
         d6:a2:c7:c2:4d:32:a2:47:df:04:cf:c8:6c:ac:25:e8:ae:74:
         78:94:73:07:b9:b1:b3:30:72:69:d5:9e:79:ba:0a:22:b0:14:
         64:a6:88:05:a9:e6:7d:ad:6e:77:4d:d8:15:95:bf:89:d3:8a:
         53:82:b6:28:98:10:06:28:02:32:6f:1d:59:18:28:5b:01:79:
         c2:29:8a:c1:c0:72:27:a4:60:9f:6d:59:61:0b:cc:d0:2e:1b:
         3e:8f:98:57:8f:47:21:c9:37:d0:61:d9:1b:ea:a3:b3:2d:b8:
         e5:5d:c8:b0:d4:c0:c4:5b:74:45:06:d8:d9:18:44:cd:f2:4e:
         4c:bc:e0:27:f1:24:d6:f7:ad:9b:65:62:81:c4:12:06:d3:07:
         6f:26:70:4b:d8:1f:08:f6:cd:b2:be:67:11:f0:e8:06:7d:8c:
         13:26:00:57:37:a7:80:a9:a6:bf:69:fa:71:b3:3e:62:20:c3:
         7a:86:32:2c
-----BEGIN CERTIFICATE-----
MIIEXTCCA0WgAwIBAgIBAjANBgkqhkiG9w0BAQsFADB+MQswCQYDVQQGEwJVUzEL
MAkGA1UECAwCQ0ExEjAQBgNVBAcMCVN1bm55dmFsZTEeMBwGA1UECgwVUmVhbCBU
aW1lIElubm92YXRpb25zMQ8wDQYDVQQDDAZSVEkgQ0ExHTAbBgkqhkiG9w0BCQEW
DnNlY3VyZUBydGkuY29tMB4XDTE4MDkyODA5NDkxM1oXDTI4MDkyNTA5NDkxM1ow
aTELMAkGA1UEBhMCVVMxCzAJBgNVBAgMAkNBMR4wHAYDVQQKDBVSZWFsIFRpbWUg
SW5ub3ZhdGlvbnMxETAPBgNVBAMMCHBlcmZ0ZXN0MRowGAYJKoZIhvcNAQkBFgtz
dWJAcnRpLmNvbTCCASIwDQYJKoZIhvcNAQEBBQADggEPADCCAQoCggEBAMU5AQHZ
lKUm5TgmmClxfzq8gT3TM6S9vk3lMsI1hqcDCgK03lsmZoSOv9fMteV3Q6Ck70By
DfATB/VH71zZrY6pbqf00hTEUyPvZTOIUO5qKUZyEfWKMHxDOoqaiqzYtKcajUTL
Agif/DF+uuQzg3GrU0tFZcXhZ5MBPa0seua8EoryV3P+liGcdm3uF5W8HcfkuG9L
w5L/ufFwQmf8we2LvUZiF3dxQ9hYHCb/OdkA8BorNh6U41ElTxzI3EofrXgIrBQZ
rinrY30mUs8Nk+/ELpwDdsJX6ggGQxffcOD4yFq90GOB5exn9R1IJuOpKK53SXpi
mGdgN3vS13+FsxsCAwEAAaOB+jCB9zAJBgNVHRMEAjAAMCwGCWCGSAGG+EIBDQQf
Fh1PcGVuU1NMIEdlbmVyYXRlZCBDZXJ0aWZpY2F0ZTAdBgNVHQ4EFgQU98pivVcp
noh524I47QQpvFFlFVswgZwGA1UdIwSBlDCBkaGBg6SBgDB+MQswCQYDVQQGEwJV
UzELMAkGA1UECAwCQ0ExEjAQBgNVBAcMCVN1bm55dmFsZTEeMBwGA1UECgwVUmVh
bCBUaW1lIElubm92YXRpb25zMQ8wDQYDVQQDDAZSVEkgQ0ExHTAbBgkqhkiG9w0B
CQEWDnNlY3VyZUBydGkuY29tggkAlwHone8ED5EwDQYJKoZIhvcNAQELBQADggEB
ADmd7TnfQKnAIWIlWKguZAx7zxQkIvLQFjEVc2piI4M91bO9DvXmLR0zWX3FjAPk
d4GTg/a4WAI579SV4kbTXjiVyw43sdgyyNaix8JNMqJH3wTPyGysJeiudHiUcwe5
sbMwcmnVnnm6CiKwFGSmiAWp5n2tbndN2BWVv4nTilOCtiiYEAYoAjJvHVkYKFsB
ecIpisHAciekYJ9tWWELzNAuGz6PmFePRyHJN9Bh2Rvqo7MtuOVdyLDUwMRbdEUG
2NkYRM3yTky84CfxJNb3rZtlYoHEEgbTB28mcEvYHwj2zbK+ZxHw6AZ9jBMmAFc3
p4Cppr9p+nGzPmIgw3qGMiw=
-----END CERTIFICATE-----
