Certificate:
    Data:
        Version: 3 (0x2)
        Serial Number: 2 (0x2)
    Signature Algorithm: sha256WithRSAEncryption
        Issuer: C=US, ST=CA, L=Sunnyvale, O=Real Time Innovations, CN=RTI CA/emailAddress=secure@rti.com
        Validity
            Not Before: May 30 09:17:08 2019 GMT
            Not After : May 27 09:17:08 2029 GMT
        Subject: C=US, ST=CA, O=Real Time Innovations, CN=perftest/emailAddress=sub@rti.com
        Subject Public Key Info:
            Public Key Algorithm: rsaEncryption
                Public-Key: (2048 bit)
                Modulus:
                    00:da:81:b2:b7:bc:db:e2:04:de:3f:f1:7a:ea:4b:
                    61:e0:0f:4c:de:8b:8c:2c:b4:e3:36:de:70:12:08:
                    c2:f0:4f:ea:db:57:25:fe:fb:28:00:eb:52:a9:be:
                    d6:33:25:ed:3d:57:06:d9:8a:a1:1f:88:85:cb:0e:
                    16:67:49:55:7d:22:0f:9b:70:92:3a:27:9c:0b:c7:
                    9e:7e:99:a6:e6:66:ca:bb:5d:ed:31:63:2d:ea:e5:
                    16:7d:59:ae:34:20:7b:66:4c:2e:4b:03:c5:1e:36:
                    a3:33:1f:c1:7d:f7:73:4b:81:54:50:9a:51:01:c3:
                    6e:09:25:53:33:7a:ac:4d:ce:d4:48:db:d0:bc:1b:
                    2b:3d:00:ac:8e:37:0a:59:0d:5e:4f:ff:68:81:3f:
                    78:7c:b8:94:bc:ec:de:6a:2d:36:be:f5:47:ab:12:
                    dd:0b:93:d9:dd:3e:83:c6:3c:56:19:a3:3f:59:a2:
                    4c:8b:97:60:55:f9:4c:95:0e:68:d3:f0:56:7f:e1:
                    f0:c4:54:1c:f4:ce:f1:26:9f:b5:fb:75:75:30:e0:
                    f0:a8:f2:d5:a5:a8:9d:a0:0e:44:2f:85:56:20:ec:
                    0a:fa:d5:38:9e:f3:52:74:d3:57:e0:04:c1:90:4f:
                    23:28:9e:a3:07:d6:24:8b:f7:26:f5:a6:06:ba:53:
                    40:c5
                Exponent: 65537 (0x10001)
        X509v3 extensions:
            X509v3 Basic Constraints: 
                CA:FALSE
            Netscape Comment: 
                OpenSSL Generated Certificate
            X509v3 Subject Key Identifier: 
                B5:BF:68:C9:71:A9:0A:F3:35:3A:51:59:A2:FB:8A:DF:27:14:0A:28
            X509v3 Authority Key Identifier: 
                DirName:/C=US/ST=CA/L=Sunnyvale/O=Real Time Innovations/CN=RTI CA/emailAddress=secure@rti.com
                serial:8F:4C:E8:10:D3:BC:65:EA

    Signature Algorithm: sha256WithRSAEncryption
         b1:14:68:0a:20:97:aa:5f:e9:ca:58:24:fd:42:4b:98:87:09:
         71:8f:27:50:d4:43:96:92:34:f5:b0:c6:0d:ff:60:8b:61:7d:
         34:d9:65:c1:51:fc:49:0f:a5:e3:d2:9a:59:2c:7e:5d:e1:94:
         23:1f:e0:8a:00:a2:4d:98:d7:9e:4e:40:f1:d3:a6:a7:e2:34:
         eb:85:c1:83:cc:cd:34:7c:1f:7f:fc:2b:93:00:e1:47:44:07:
         4b:ac:55:6c:fe:89:9a:a0:76:47:b4:06:e1:92:61:7f:fe:65:
         5f:95:6e:af:3a:f9:a6:70:54:64:33:a8:2a:34:39:ac:f6:e3:
         f9:1a:ea:99:50:cf:1a:53:ec:40:ad:7b:03:73:0c:22:08:31:
         13:63:8d:c4:3b:3d:c8:5c:b4:53:ef:79:ab:6d:ef:a0:15:dd:
         ef:c9:e1:b7:c6:b8:ff:9c:2f:54:ea:f0:ff:f8:a1:94:06:f2:
         78:9a:01:4c:d3:89:19:c1:b3:9f:e3:25:db:df:25:bc:27:5f:
         34:4e:58:18:26:1a:8a:37:d0:f5:27:ff:bb:3e:e3:2b:ee:0c:
         8d:c3:55:77:6a:b9:43:9d:8c:31:fc:96:c2:1a:3f:ec:bb:26:
         30:b2:af:dc:49:93:29:3c:20:a2:d1:11:5e:d8:c6:7c:1b:21:
         ca:b8:83:51
-----BEGIN CERTIFICATE-----
MIIEXTCCA0WgAwIBAgIBAjANBgkqhkiG9w0BAQsFADB+MQswCQYDVQQGEwJVUzEL
MAkGA1UECAwCQ0ExEjAQBgNVBAcMCVN1bm55dmFsZTEeMBwGA1UECgwVUmVhbCBU
aW1lIElubm92YXRpb25zMQ8wDQYDVQQDDAZSVEkgQ0ExHTAbBgkqhkiG9w0BCQEW
DnNlY3VyZUBydGkuY29tMB4XDTE5MDUzMDA5MTcwOFoXDTI5MDUyNzA5MTcwOFow
aTELMAkGA1UEBhMCVVMxCzAJBgNVBAgMAkNBMR4wHAYDVQQKDBVSZWFsIFRpbWUg
SW5ub3ZhdGlvbnMxETAPBgNVBAMMCHBlcmZ0ZXN0MRowGAYJKoZIhvcNAQkBFgtz
dWJAcnRpLmNvbTCCASIwDQYJKoZIhvcNAQEBBQADggEPADCCAQoCggEBANqBsre8
2+IE3j/xeupLYeAPTN6LjCy04zbecBIIwvBP6ttXJf77KADrUqm+1jMl7T1XBtmK
oR+IhcsOFmdJVX0iD5twkjonnAvHnn6ZpuZmyrtd7TFjLerlFn1ZrjQge2ZMLksD
xR42ozMfwX33c0uBVFCaUQHDbgklUzN6rE3O1Ejb0LwbKz0ArI43ClkNXk//aIE/
eHy4lLzs3motNr71R6sS3QuT2d0+g8Y8VhmjP1miTIuXYFX5TJUOaNPwVn/h8MRU
HPTO8Saftft1dTDg8Kjy1aWonaAORC+FViDsCvrVOJ7zUnTTV+AEwZBPIyieowfW
JIv3JvWmBrpTQMUCAwEAAaOB+jCB9zAJBgNVHRMEAjAAMCwGCWCGSAGG+EIBDQQf
Fh1PcGVuU1NMIEdlbmVyYXRlZCBDZXJ0aWZpY2F0ZTAdBgNVHQ4EFgQUtb9oyXGp
CvM1OlFZovuK3ycUCigwgZwGA1UdIwSBlDCBkaGBg6SBgDB+MQswCQYDVQQGEwJV
UzELMAkGA1UECAwCQ0ExEjAQBgNVBAcMCVN1bm55dmFsZTEeMBwGA1UECgwVUmVh
bCBUaW1lIElubm92YXRpb25zMQ8wDQYDVQQDDAZSVEkgQ0ExHTAbBgkqhkiG9w0B
CQEWDnNlY3VyZUBydGkuY29tggkAj0zoENO8ZeowDQYJKoZIhvcNAQELBQADggEB
ALEUaAogl6pf6cpYJP1CS5iHCXGPJ1DUQ5aSNPWwxg3/YIthfTTZZcFR/EkPpePS
mlksfl3hlCMf4IoAok2Y155OQPHTpqfiNOuFwYPMzTR8H3/8K5MA4UdEB0usVWz+
iZqgdke0BuGSYX/+ZV+Vbq86+aZwVGQzqCo0Oaz24/ka6plQzxpT7ECtewNzDCII
MRNjjcQ7PchctFPveatt76AV3e/J4bfGuP+cL1Tq8P/4oZQG8niaAUzTiRnBs5/j
JdvfJbwnXzROWBgmGoo30PUn/7s+4yvuDI3DVXdquUOdjDH8lsIaP+y7JjCyr9xJ
kyk8IKLREV7YxnwbIcq4g1E=
-----END CERTIFICATE-----
