Certificate:
    Data:
        Version: 3 (0x2)
        Serial Number: 1 (0x1)
    Signature Algorithm: sha256WithRSAEncryption
        Issuer: C=US, ST=CA, L=Sunnyvale, O=Real Time Innovations, CN=RTI CA/emailAddress=secure@rti.com
        Validity
            Not Before: Oct 24 14:04:16 2019 GMT
            Not After : Oct 21 14:04:16 2029 GMT
        Subject: C=US, ST=CA, O=Real Time Innovations, CN=perftest/emailAddress=pub@rti.com
        Subject Public Key Info:
            Public Key Algorithm: rsaEncryption
                Public-Key: (2048 bit)
                Modulus:
                    00:ca:72:11:e8:b0:6a:95:49:b4:fc:a7:b9:35:82:
                    5d:8e:91:12:a1:52:38:a4:6f:6f:38:57:6a:54:c7:
                    64:ba:26:b9:6e:a9:9a:e4:42:76:2e:ec:71:fc:5b:
                    44:f3:0f:cf:e7:0d:ae:32:de:6d:19:51:a4:20:1f:
                    15:e0:cc:d1:c0:79:7c:ca:c5:7f:3d:5f:78:77:80:
                    a2:f4:75:94:f9:00:27:1d:59:47:39:10:02:81:8f:
                    3c:bf:a0:51:ba:b7:a0:34:c6:51:7b:47:7c:25:41:
                    0d:65:8f:c7:31:0c:5f:01:b6:a2:b0:a8:68:e3:74:
                    e0:8c:24:2b:7c:99:eb:e3:13:4c:c8:b9:81:59:50:
                    e1:52:1d:b5:29:45:22:3a:bb:cb:db:c6:29:29:bd:
                    3b:00:8f:02:0c:7a:7b:d9:86:8c:86:5e:21:fe:85:
                    df:92:04:3d:37:38:2d:f0:8d:a1:50:65:2a:54:8a:
                    5c:d8:4c:ef:78:40:92:fc:aa:59:37:fd:16:b0:be:
                    ab:20:53:b0:2f:5f:5a:dc:2f:c2:20:a0:2a:85:4e:
                    6b:f4:a2:54:11:f1:33:42:71:3f:83:3b:34:94:1d:
                    97:7e:1d:5e:62:d2:97:04:58:cd:55:31:61:4e:50:
                    96:3e:c2:aa:f6:3a:33:23:b8:4b:69:7e:a6:15:da:
                    8b:09
                Exponent: 65537 (0x10001)
        X509v3 extensions:
            X509v3 Basic Constraints: 
                CA:FALSE
            Netscape Comment: 
                OpenSSL Generated Certificate
            X509v3 Subject Key Identifier: 
                F5:F4:66:66:7F:23:E4:0B:5F:21:B7:32:91:5D:04:A2:90:8C:71:56
            X509v3 Authority Key Identifier: 
                DirName:/C=US/ST=CA/L=Sunnyvale/O=Real Time Innovations/CN=RTI CA/emailAddress=secure@rti.com
                serial:DD:DF:D4:7B:14:63:72:D3

    Signature Algorithm: sha256WithRSAEncryption
         28:8f:49:17:ae:fa:87:23:a2:09:31:cf:f8:f3:33:e4:9f:24:
         42:f9:dc:62:53:0d:f8:90:c4:c6:fe:7d:1a:40:0f:5f:c2:c7:
         68:aa:40:51:4f:f0:3e:5c:42:e3:50:bf:fc:ad:22:96:8b:d6:
         3c:dd:12:7c:85:d0:5a:91:8d:44:37:08:3e:92:cb:17:f8:a4:
         c4:37:a1:0c:4d:34:ed:86:0e:2f:49:d5:25:aa:ff:22:0a:5e:
         7f:3e:d8:d4:9c:33:72:12:39:b6:b3:ef:41:a5:7f:2e:27:96:
         f7:fc:4e:94:7f:18:90:ba:c3:0d:95:21:c2:8e:c1:b6:da:c3:
         5d:6c:1e:23:54:8c:ad:e2:a2:e2:d4:dc:04:c4:5f:01:a3:ff:
         2b:95:11:8b:24:93:7b:91:06:dc:e1:c6:ca:c2:25:6d:cf:db:
         41:27:41:e5:70:4b:ea:d4:f1:c8:8e:0b:5b:81:0f:82:98:f9:
         16:c5:2b:d4:8f:2a:44:6e:82:11:21:eb:ec:87:28:c6:d7:08:
         11:19:a7:30:7a:d4:3d:d9:22:c1:dd:e2:5a:ab:6e:f3:76:ae:
         cb:d0:09:54:89:a3:23:62:96:94:18:d7:27:b2:57:28:89:ab:
         ed:34:0a:0e:e4:f2:a6:0a:f9:09:7c:96:8a:2b:fb:a9:29:14:
         cd:a3:66:e5
-----BEGIN CERTIFICATE-----
MIIEXTCCA0WgAwIBAgIBATANBgkqhkiG9w0BAQsFADB+MQswCQYDVQQGEwJVUzEL
MAkGA1UECAwCQ0ExEjAQBgNVBAcMCVN1bm55dmFsZTEeMBwGA1UECgwVUmVhbCBU
aW1lIElubm92YXRpb25zMQ8wDQYDVQQDDAZSVEkgQ0ExHTAbBgkqhkiG9w0BCQEW
DnNlY3VyZUBydGkuY29tMB4XDTE5MTAyNDE0MDQxNloXDTI5MTAyMTE0MDQxNlow
aTELMAkGA1UEBhMCVVMxCzAJBgNVBAgMAkNBMR4wHAYDVQQKDBVSZWFsIFRpbWUg
SW5ub3ZhdGlvbnMxETAPBgNVBAMMCHBlcmZ0ZXN0MRowGAYJKoZIhvcNAQkBFgtw
dWJAcnRpLmNvbTCCASIwDQYJKoZIhvcNAQEBBQADggEPADCCAQoCggEBAMpyEeiw
apVJtPynuTWCXY6REqFSOKRvbzhXalTHZLomuW6pmuRCdi7scfxbRPMPz+cNrjLe
bRlRpCAfFeDM0cB5fMrFfz1feHeAovR1lPkAJx1ZRzkQAoGPPL+gUbq3oDTGUXtH
fCVBDWWPxzEMXwG2orCoaON04IwkK3yZ6+MTTMi5gVlQ4VIdtSlFIjq7y9vGKSm9
OwCPAgx6e9mGjIZeIf6F35IEPTc4LfCNoVBlKlSKXNhM73hAkvyqWTf9FrC+qyBT
sC9fWtwvwiCgKoVOa/SiVBHxM0JxP4M7NJQdl34dXmLSlwRYzVUxYU5Qlj7CqvY6
MyO4S2l+phXaiwkCAwEAAaOB+jCB9zAJBgNVHRMEAjAAMCwGCWCGSAGG+EIBDQQf
Fh1PcGVuU1NMIEdlbmVyYXRlZCBDZXJ0aWZpY2F0ZTAdBgNVHQ4EFgQU9fRmZn8j
5AtfIbcykV0EopCMcVYwgZwGA1UdIwSBlDCBkaGBg6SBgDB+MQswCQYDVQQGEwJV
UzELMAkGA1UECAwCQ0ExEjAQBgNVBAcMCVN1bm55dmFsZTEeMBwGA1UECgwVUmVh
bCBUaW1lIElubm92YXRpb25zMQ8wDQYDVQQDDAZSVEkgQ0ExHTAbBgkqhkiG9w0B
CQEWDnNlY3VyZUBydGkuY29tggkA3d/UexRjctMwDQYJKoZIhvcNAQELBQADggEB
ACiPSReu+ocjogkxz/jzM+SfJEL53GJTDfiQxMb+fRpAD1/Cx2iqQFFP8D5cQuNQ
v/ytIpaL1jzdEnyF0FqRjUQ3CD6Syxf4pMQ3oQxNNO2GDi9J1SWq/yIKXn8+2NSc
M3ISObaz70Glfy4nlvf8TpR/GJC6ww2VIcKOwbbaw11sHiNUjK3iouLU3ATEXwGj
/yuVEYskk3uRBtzhxsrCJW3P20EnQeVwS+rU8ciOC1uBD4KY+RbFK9SPKkRughEh
6+yHKMbXCBEZpzB61D3ZIsHd4lqrbvN2rsvQCVSJoyNilpQY1yeyVyiJq+00Cg7k
8qYK+Ql8loor+6kpFM2jZuU=
-----END CERTIFICATE-----
