Certificate:
    Data:
        Version: 3 (0x2)
        Serial Number: 1 (0x1)
    Signature Algorithm: sha256WithRSAEncryption
        Issuer: C=US, ST=CA, L=Sunnyvale, O=Real Time Innovations, CN=RTI CA/emailAddress=secure@rti.com
        Validity
            Not Before: May 30 09:17:03 2019 GMT
            Not After : May 27 09:17:03 2029 GMT
        Subject: C=US, ST=CA, O=Real Time Innovations, CN=perftest/emailAddress=pub@rti.com
        Subject Public Key Info:
            Public Key Algorithm: rsaEncryption
                Public-Key: (2048 bit)
                Modulus:
                    00:da:fd:f8:38:54:42:b8:d5:98:92:25:75:cf:02:
                    a4:b5:7e:ab:8d:9c:1a:f2:79:48:62:52:32:6f:c3:
                    c7:89:9d:5c:58:ac:89:c8:8a:8e:51:3b:6b:be:03:
                    fe:ce:ab:c6:75:2d:36:80:53:40:3c:a4:33:5d:ee:
                    22:00:ea:34:5b:da:9f:63:2c:b9:45:ad:a0:bf:83:
                    ce:f3:98:19:bb:a5:96:3b:5b:e0:20:32:1f:c8:f0:
                    15:ef:fe:9f:8a:ea:ea:94:3a:ee:70:7d:8b:df:c1:
                    55:43:48:68:f0:77:e3:2a:84:17:47:e5:27:14:cf:
                    b4:7a:8f:b3:94:6d:0f:c5:91:03:9e:f5:8b:ab:5f:
                    09:ec:94:8c:53:c2:e6:23:55:69:ce:fa:91:4d:2f:
                    47:a6:9d:af:ff:db:c4:2f:99:79:e1:63:da:4b:53:
                    d9:51:86:b5:eb:40:aa:12:f6:92:12:f8:66:36:47:
                    22:31:c6:c9:d8:61:98:4b:12:f7:3c:37:6d:90:f4:
                    de:28:ee:a6:d4:63:79:4b:41:22:f1:1e:78:8e:cb:
                    19:2f:2f:4a:f1:69:50:e9:e4:29:11:25:39:01:00:
                    6f:9b:ed:d0:16:98:bd:a1:0c:6d:d2:fd:9a:1b:80:
                    84:a4:7a:8a:4a:b6:e7:02:a9:d2:58:14:c9:cb:05:
                    80:e9
                Exponent: 65537 (0x10001)
        X509v3 extensions:
            X509v3 Basic Constraints: 
                CA:FALSE
            Netscape Comment: 
                OpenSSL Generated Certificate
            X509v3 Subject Key Identifier: 
                F9:A9:56:80:89:12:34:AB:EC:5E:0C:17:25:81:2D:4C:01:97:C6:59
            X509v3 Authority Key Identifier: 
                DirName:/C=US/ST=CA/L=Sunnyvale/O=Real Time Innovations/CN=RTI CA/emailAddress=secure@rti.com
                serial:8F:4C:E8:10:D3:BC:65:EA

    Signature Algorithm: sha256WithRSAEncryption
         42:c6:d7:cb:d9:be:51:7d:fd:35:cf:c1:bb:ff:d6:18:f2:3a:
         ec:91:83:aa:41:2a:9e:34:46:d2:21:11:1e:a1:8f:e9:db:8f:
         24:ce:f5:d9:4b:3f:9c:b1:11:59:b2:59:57:42:b2:9a:54:1d:
         84:2f:78:91:99:0f:bf:c8:f7:42:e9:e9:ed:42:f3:e2:d2:70:
         3e:30:1e:63:3f:86:15:ad:d2:b0:c0:a6:11:84:8a:aa:56:5c:
         11:41:89:54:ee:6c:1d:22:9f:66:ce:43:d6:dc:e8:f3:41:cc:
         7b:72:2e:14:8e:60:9d:b5:69:aa:dd:7b:28:79:bd:f3:72:ca:
         e4:1a:b5:11:ae:32:be:f1:2c:2f:00:4e:69:6a:d5:a4:b0:84:
         38:6d:d0:80:a8:2f:d9:71:89:2c:0b:48:a6:9b:7d:1d:3c:e8:
         db:33:8a:dd:e0:73:1e:23:91:6a:fa:36:88:96:9b:1f:7c:ab:
         83:7a:78:b4:df:39:b6:19:7f:8d:80:48:83:5b:bd:1a:9c:1e:
         44:24:0c:42:7e:01:0d:75:3b:7c:b3:33:2d:e4:e1:9e:5d:4d:
         3d:fb:60:ae:c4:d8:2c:cf:73:34:4b:67:6c:ef:a9:65:b4:63:
         39:63:4f:0c:30:c3:98:32:e9:89:57:57:75:e4:68:4a:e3:dd:
         35:60:7e:48
-----BEGIN CERTIFICATE-----
MIIEXTCCA0WgAwIBAgIBATANBgkqhkiG9w0BAQsFADB+MQswCQYDVQQGEwJVUzEL
MAkGA1UECAwCQ0ExEjAQBgNVBAcMCVN1bm55dmFsZTEeMBwGA1UECgwVUmVhbCBU
aW1lIElubm92YXRpb25zMQ8wDQYDVQQDDAZSVEkgQ0ExHTAbBgkqhkiG9w0BCQEW
DnNlY3VyZUBydGkuY29tMB4XDTE5MDUzMDA5MTcwM1oXDTI5MDUyNzA5MTcwM1ow
aTELMAkGA1UEBhMCVVMxCzAJBgNVBAgMAkNBMR4wHAYDVQQKDBVSZWFsIFRpbWUg
SW5ub3ZhdGlvbnMxETAPBgNVBAMMCHBlcmZ0ZXN0MRowGAYJKoZIhvcNAQkBFgtw
dWJAcnRpLmNvbTCCASIwDQYJKoZIhvcNAQEBBQADggEPADCCAQoCggEBANr9+DhU
QrjVmJIldc8CpLV+q42cGvJ5SGJSMm/Dx4mdXFisiciKjlE7a74D/s6rxnUtNoBT
QDykM13uIgDqNFvan2MsuUWtoL+DzvOYGbulljtb4CAyH8jwFe/+n4rq6pQ67nB9
i9/BVUNIaPB34yqEF0flJxTPtHqPs5RtD8WRA571i6tfCeyUjFPC5iNVac76kU0v
R6adr//bxC+ZeeFj2ktT2VGGtetAqhL2khL4ZjZHIjHGydhhmEsS9zw3bZD03iju
ptRjeUtBIvEeeI7LGS8vSvFpUOnkKRElOQEAb5vt0BaYvaEMbdL9mhuAhKR6ikq2
5wKp0lgUycsFgOkCAwEAAaOB+jCB9zAJBgNVHRMEAjAAMCwGCWCGSAGG+EIBDQQf
Fh1PcGVuU1NMIEdlbmVyYXRlZCBDZXJ0aWZpY2F0ZTAdBgNVHQ4EFgQU+alWgIkS
NKvsXgwXJYEtTAGXxlkwgZwGA1UdIwSBlDCBkaGBg6SBgDB+MQswCQYDVQQGEwJV
UzELMAkGA1UECAwCQ0ExEjAQBgNVBAcMCVN1bm55dmFsZTEeMBwGA1UECgwVUmVh
bCBUaW1lIElubm92YXRpb25zMQ8wDQYDVQQDDAZSVEkgQ0ExHTAbBgkqhkiG9w0B
CQEWDnNlY3VyZUBydGkuY29tggkAj0zoENO8ZeowDQYJKoZIhvcNAQELBQADggEB
AELG18vZvlF9/TXPwbv/1hjyOuyRg6pBKp40RtIhER6hj+nbjyTO9dlLP5yxEVmy
WVdCsppUHYQveJGZD7/I90Lp6e1C8+LScD4wHmM/hhWt0rDAphGEiqpWXBFBiVTu
bB0in2bOQ9bc6PNBzHtyLhSOYJ21aardeyh5vfNyyuQatRGuMr7xLC8ATmlq1aSw
hDht0ICoL9lxiSwLSKabfR086Nszit3gcx4jkWr6NoiWmx98q4N6eLTfObYZf42A
SINbvRqcHkQkDEJ+AQ11O3yzMy3k4Z5dTT37YK7E2CzPczRLZ2zvqWW0YzljTwww
w5gy6YlXV3XkaErj3TVgfkg=
-----END CERTIFICATE-----
