Certificate:
    Data:
        Version: 3 (0x2)
        Serial Number: 1 (0x1)
    Signature Algorithm: sha256WithRSAEncryption
        Issuer: C=US, ST=CA, L=Sunnyvale, O=Real Time Innovations, CN=RTI CA/emailAddress=secure@rti.com
        Validity
            Not Before: Apr  2 12:52:46 2018 GMT
            Not After : Mar 30 12:52:46 2028 GMT
        Subject: C=US, ST=CA, O=Real Time Innovations, CN=perftest/emailAddress=pub@rti.com
        Subject Public Key Info:
            Public Key Algorithm: rsaEncryption
                Public-Key: (2048 bit)
                Modulus:
                    00:b7:12:fe:82:78:8e:4d:7a:5b:65:6b:7e:fc:26:
                    90:69:6b:ee:51:5c:80:80:e8:74:b0:f1:0c:fe:36:
                    4d:7a:31:07:f4:7e:ec:db:86:8e:4a:1c:92:2d:ba:
                    e6:f2:b7:cf:55:9e:f5:57:82:f8:83:b0:eb:6b:c4:
                    23:46:44:b1:b5:ee:7d:b1:22:ff:a9:00:2b:3b:8b:
                    c9:ef:c8:8a:8a:7f:84:80:f8:7b:22:c0:f7:84:91:
                    73:c9:c1:0a:ec:4d:dc:be:34:f2:b7:fa:07:48:c9:
                    eb:05:c0:bd:26:ce:96:66:f2:1b:bf:45:f7:f5:bf:
                    71:ab:5a:72:72:fd:15:97:29:66:05:48:25:a1:f0:
                    37:c1:48:36:da:c7:00:5f:6a:00:14:3e:7d:eb:5a:
                    e9:d5:ae:72:3e:b4:0c:8a:9a:de:b5:c6:88:f0:d1:
                    ad:ec:ca:6b:ca:04:45:5d:19:fe:4d:19:0f:38:e4:
                    01:3a:b4:cb:44:8a:0f:94:aa:ac:7f:34:5d:74:0e:
                    d0:d5:50:4f:99:e3:6a:39:f3:aa:a0:d6:6c:dd:92:
                    a5:c3:24:87:dd:b4:2b:1c:8d:36:cd:45:4c:0d:69:
                    0c:a4:da:49:7d:f8:27:b7:ad:9d:9e:dd:d9:1e:12:
                    b6:b6:c9:3e:d9:79:92:14:de:2e:3f:91:05:28:aa:
                    6e:47
                Exponent: 65537 (0x10001)
        X509v3 extensions:
            X509v3 Basic Constraints: 
                CA:FALSE
            Netscape Comment: 
                OpenSSL Generated Certificate
            X509v3 Subject Key Identifier: 
                78:50:47:25:5E:03:B2:3D:0C:C3:13:3D:33:7B:BE:2F:34:D1:64:A6
            X509v3 Authority Key Identifier: 
                DirName:/C=US/ST=CA/L=Sunnyvale/O=Real Time Innovations/CN=RTI CA/emailAddress=secure@rti.com
                serial:84:36:91:4C:60:78:3D:8F

    Signature Algorithm: sha256WithRSAEncryption
         34:0f:7c:62:ed:33:14:f0:34:11:33:0a:47:6a:e5:c0:96:ed:
         0d:b5:51:14:d2:b3:a9:6f:84:f4:40:af:2b:1a:7f:d6:ad:cd:
         21:f2:5d:dd:c7:c4:94:07:bb:8a:4f:2d:7f:b7:05:7c:ef:4c:
         50:8c:06:de:64:f5:e6:ba:61:7f:46:44:81:fb:d5:29:f0:b7:
         29:51:15:06:fe:97:59:42:68:85:d8:76:92:fa:f9:9d:77:00:
         1f:cf:fe:e9:fe:21:fd:47:9a:bf:a5:de:6c:8c:8e:0d:2c:74:
         ff:ef:1a:f2:0d:0f:a9:ea:50:be:42:3d:f3:2f:f2:53:54:a1:
         1e:0e:b1:fd:0a:36:d8:d6:9b:16:42:75:42:de:04:44:ef:9e:
         84:bc:69:5b:78:c1:08:d3:6b:c1:32:6d:ee:98:e1:bc:e5:cc:
         ad:0c:cf:99:c3:9c:af:99:c4:6e:50:b1:65:e5:24:22:78:4d:
         fa:e4:58:f0:fe:5e:ca:90:b3:dd:20:7d:a5:64:20:c7:5d:d3:
         ac:77:1c:d2:aa:da:7a:e4:b1:22:6a:71:46:82:34:d8:bc:aa:
         7e:81:39:73:34:ab:e8:6c:74:c9:70:5f:88:03:af:d4:f8:b0:
         d4:9e:28:d4:8a:f7:00:be:b8:37:d6:f6:4d:f9:ba:b0:bd:67:
         b6:09:93:1b
-----BEGIN CERTIFICATE-----
MIIEXTCCA0WgAwIBAgIBATANBgkqhkiG9w0BAQsFADB+MQswCQYDVQQGEwJVUzEL
MAkGA1UECAwCQ0ExEjAQBgNVBAcMCVN1bm55dmFsZTEeMBwGA1UECgwVUmVhbCBU
aW1lIElubm92YXRpb25zMQ8wDQYDVQQDDAZSVEkgQ0ExHTAbBgkqhkiG9w0BCQEW
DnNlY3VyZUBydGkuY29tMB4XDTE4MDQwMjEyNTI0NloXDTI4MDMzMDEyNTI0Nlow
aTELMAkGA1UEBhMCVVMxCzAJBgNVBAgMAkNBMR4wHAYDVQQKDBVSZWFsIFRpbWUg
SW5ub3ZhdGlvbnMxETAPBgNVBAMMCHBlcmZ0ZXN0MRowGAYJKoZIhvcNAQkBFgtw
dWJAcnRpLmNvbTCCASIwDQYJKoZIhvcNAQEBBQADggEPADCCAQoCggEBALcS/oJ4
jk16W2VrfvwmkGlr7lFcgIDodLDxDP42TXoxB/R+7NuGjkocki265vK3z1We9VeC
+IOw62vEI0ZEsbXufbEi/6kAKzuLye/Iiop/hID4eyLA94SRc8nBCuxN3L408rf6
B0jJ6wXAvSbOlmbyG79F9/W/catacnL9FZcpZgVIJaHwN8FINtrHAF9qABQ+feta
6dWucj60DIqa3rXGiPDRrezKa8oERV0Z/k0ZDzjkATq0y0SKD5SqrH80XXQO0NVQ
T5njajnzqqDWbN2SpcMkh920KxyNNs1FTA1pDKTaSX34J7etnZ7d2R4StrbJPtl5
khTeLj+RBSiqbkcCAwEAAaOB+jCB9zAJBgNVHRMEAjAAMCwGCWCGSAGG+EIBDQQf
Fh1PcGVuU1NMIEdlbmVyYXRlZCBDZXJ0aWZpY2F0ZTAdBgNVHQ4EFgQUeFBHJV4D
sj0MwxM9M3u+LzTRZKYwgZwGA1UdIwSBlDCBkaGBg6SBgDB+MQswCQYDVQQGEwJV
UzELMAkGA1UECAwCQ0ExEjAQBgNVBAcMCVN1bm55dmFsZTEeMBwGA1UECgwVUmVh
bCBUaW1lIElubm92YXRpb25zMQ8wDQYDVQQDDAZSVEkgQ0ExHTAbBgkqhkiG9w0B
CQEWDnNlY3VyZUBydGkuY29tggkAhDaRTGB4PY8wDQYJKoZIhvcNAQELBQADggEB
ADQPfGLtMxTwNBEzCkdq5cCW7Q21URTSs6lvhPRArysaf9atzSHyXd3HxJQHu4pP
LX+3BXzvTFCMBt5k9ea6YX9GRIH71SnwtylRFQb+l1lCaIXYdpL6+Z13AB/P/un+
If1Hmr+l3myMjg0sdP/vGvIND6nqUL5CPfMv8lNUoR4Osf0KNtjWmxZCdULeBETv
noS8aVt4wQjTa8Eybe6Y4bzlzK0Mz5nDnK+ZxG5QsWXlJCJ4TfrkWPD+XsqQs90g
faVkIMdd06x3HNKq2nrksSJqcUaCNNi8qn6BOXM0q+hsdMlwX4gDr9T4sNSeKNSK
9wC+uDfW9k35urC9Z7YJkxs=
-----END CERTIFICATE-----
