Certificate:
    Data:
        Version: 3 (0x2)
        Serial Number: 1 (0x1)
    Signature Algorithm: sha256WithRSAEncryption
        Issuer: C=US, ST=CA, L=Sunnyvale, O=Real Time Innovations, CN=RTI CA/emailAddress=secure@rti.com
        Validity
            Not Before: Aug  2 15:53:06 2016 GMT
            Not After : Aug  2 15:53:06 2017 GMT
        Subject: C=US, ST=CA, O=Real Time Innovations, CN=perftest/emailAddress=pub@rti.com
        Subject Public Key Info:
            Public Key Algorithm: rsaEncryption
                Public-Key: (2048 bit)
                Modulus:
                    00:9e:96:68:b8:92:56:53:2d:dd:6e:d4:43:2c:92:
                    99:0e:bd:fa:1a:e3:d0:e1:b8:d2:ee:0f:f5:21:06:
                    f2:cb:f2:6c:d9:c8:36:59:a4:18:c3:ad:c3:fb:76:
                    bc:88:e5:70:cd:73:32:02:37:36:09:dc:bc:4f:e7:
                    cb:42:cd:2e:e1:bb:6d:6a:57:f5:26:74:6f:8c:2b:
                    3f:d7:ba:18:0e:59:20:96:f0:22:44:cc:1d:03:80:
                    bd:77:63:5e:2f:c1:1e:78:94:b8:fd:4e:2b:69:f5:
                    f4:c2:3e:fb:6e:a0:dd:d5:54:1f:46:6a:6e:84:5c:
                    1d:e0:a8:ef:de:bc:6e:d6:5b:5c:02:f6:0f:71:e8:
                    18:44:e6:8e:0e:11:9a:cf:a0:21:3e:e1:44:ac:e2:
                    27:a4:aa:14:c7:41:63:0b:a8:8e:b3:2a:9e:b6:59:
                    56:72:3f:5e:6a:88:cc:6d:b8:39:c0:bd:e5:ff:bf:
                    53:d2:cd:c1:32:5d:56:c2:b7:0a:aa:5f:9c:0a:94:
                    2c:8c:a5:36:0c:82:ad:fc:ec:7d:68:34:dd:c3:2f:
                    a1:7f:67:89:06:79:16:fe:da:9d:a5:93:6e:69:c4:
                    af:a4:6b:f5:15:87:15:dc:49:9b:cc:85:90:6f:19:
                    c3:72:9d:c0:11:52:9b:5a:66:12:5b:4e:8c:8c:84:
                    2b:41
                Exponent: 65537 (0x10001)
        X509v3 extensions:
            X509v3 Basic Constraints: 
                CA:FALSE
            Netscape Comment: 
                OpenSSL Generated Certificate
            X509v3 Subject Key Identifier: 
                A8:30:44:10:AC:6A:C5:E2:D0:3D:5B:46:43:18:4B:50:46:92:A1:19
            X509v3 Authority Key Identifier: 
                DirName:/C=US/ST=CA/L=Sunnyvale/O=Real Time Innovations/CN=RTI CA/emailAddress=secure@rti.com
                serial:DC:7E:48:86:41:FB:20:6F

    Signature Algorithm: sha256WithRSAEncryption
         7c:d7:ed:9b:4e:44:93:29:72:e1:14:3c:00:84:26:62:75:f2:
         dd:66:34:81:0b:32:a8:fe:55:30:a8:4e:20:50:a4:4a:56:b5:
         c4:e0:3b:37:df:2a:b1:3a:a4:db:a8:0b:b5:be:94:d2:f6:bf:
         21:60:f3:84:be:6b:88:5e:cf:43:b0:b8:af:df:ec:d0:fd:1d:
         18:bd:53:5d:d6:59:71:4d:05:4a:4f:1e:ae:17:87:72:82:eb:
         e1:f0:ba:3b:c1:5d:6c:7c:67:e8:67:f9:d8:5c:b6:2b:39:74:
         d5:d1:77:3b:a3:8f:2e:82:9a:72:d8:a4:7b:6f:ec:65:09:c9:
         e3:f0:7b:14:d8:22:5f:99:d0:6d:cb:ef:90:39:70:56:9c:4b:
         5b:db:8c:83:d6:ab:8e:b4:a5:bc:2a:85:53:f8:94:01:6b:f6:
         60:ea:93:48:e7:d2:0b:85:f3:cc:b9:66:ad:6e:58:b1:03:e3:
         e4:7b:9a:7b:86:6a:18:85:36:9d:fa:44:53:33:31:b1:63:88:
         58:da:3a:bd:f5:47:51:e0:b4:5b:d8:43:b1:e2:a7:be:f0:0b:
         35:29:05:f3:0f:b8:08:aa:72:b2:c9:4c:86:46:46:c4:c7:f4:
         a6:0d:94:39:53:bb:38:84:4f:34:ed:35:eb:9b:0b:7d:12:ee:
         af:0a:7f:81
-----BEGIN CERTIFICATE-----
MIIEXTCCA0WgAwIBAgIBATANBgkqhkiG9w0BAQsFADB+MQswCQYDVQQGEwJVUzEL
MAkGA1UECAwCQ0ExEjAQBgNVBAcMCVN1bm55dmFsZTEeMBwGA1UECgwVUmVhbCBU
aW1lIElubm92YXRpb25zMQ8wDQYDVQQDDAZSVEkgQ0ExHTAbBgkqhkiG9w0BCQEW
DnNlY3VyZUBydGkuY29tMB4XDTE2MDgwMjE1NTMwNloXDTE3MDgwMjE1NTMwNlow
aTELMAkGA1UEBhMCVVMxCzAJBgNVBAgMAkNBMR4wHAYDVQQKDBVSZWFsIFRpbWUg
SW5ub3ZhdGlvbnMxETAPBgNVBAMMCHBlcmZ0ZXN0MRowGAYJKoZIhvcNAQkBFgtw
dWJAcnRpLmNvbTCCASIwDQYJKoZIhvcNAQEBBQADggEPADCCAQoCggEBAJ6WaLiS
VlMt3W7UQyySmQ69+hrj0OG40u4P9SEG8svybNnINlmkGMOtw/t2vIjlcM1zMgI3
NgncvE/ny0LNLuG7bWpX9SZ0b4wrP9e6GA5ZIJbwIkTMHQOAvXdjXi/BHniUuP1O
K2n19MI++26g3dVUH0ZqboRcHeCo7968btZbXAL2D3HoGETmjg4Rms+gIT7hRKzi
J6SqFMdBYwuojrMqnrZZVnI/XmqIzG24OcC95f+/U9LNwTJdVsK3CqpfnAqULIyl
NgyCrfzsfWg03cMvoX9niQZ5Fv7anaWTbmnEr6Rr9RWHFdxJm8yFkG8Zw3KdwBFS
m1pmEltOjIyEK0ECAwEAAaOB+jCB9zAJBgNVHRMEAjAAMCwGCWCGSAGG+EIBDQQf
Fh1PcGVuU1NMIEdlbmVyYXRlZCBDZXJ0aWZpY2F0ZTAdBgNVHQ4EFgQUqDBEEKxq
xeLQPVtGQxhLUEaSoRkwgZwGA1UdIwSBlDCBkaGBg6SBgDB+MQswCQYDVQQGEwJV
UzELMAkGA1UECAwCQ0ExEjAQBgNVBAcMCVN1bm55dmFsZTEeMBwGA1UECgwVUmVh
bCBUaW1lIElubm92YXRpb25zMQ8wDQYDVQQDDAZSVEkgQ0ExHTAbBgkqhkiG9w0B
CQEWDnNlY3VyZUBydGkuY29tggkA3H5IhkH7IG8wDQYJKoZIhvcNAQELBQADggEB
AHzX7ZtORJMpcuEUPACEJmJ18t1mNIELMqj+VTCoTiBQpEpWtcTgOzffKrE6pNuo
C7W+lNL2vyFg84S+a4hez0OwuK/f7ND9HRi9U13WWXFNBUpPHq4Xh3KC6+HwujvB
XWx8Z+hn+dhctis5dNXRdzujjy6CmnLYpHtv7GUJyePwexTYIl+Z0G3L75A5cFac
S1vbjIPWq460pbwqhVP4lAFr9mDqk0jn0guF88y5Zq1uWLED4+R7mnuGahiFNp36
RFMzMbFjiFjaOr31R1HgtFvYQ7Hip77wCzUpBfMPuAiqcrLJTIZGRsTH9KYNlDlT
uziETzTtNeubC30S7q8Kf4E=
-----END CERTIFICATE-----
