Certificate:
    Data:
        Version: 3 (0x2)
        Serial Number: 1 (0x1)
    Signature Algorithm: sha256WithRSAEncryption
        Issuer: C=US, ST=CA, L=Sunnyvale, O=Real Time Innovations, CN=RTI CA/emailAddress=secure@rti.com
        Validity
            Not Before: Mar  8 12:40:04 2017 GMT
            Not After : Mar  8 12:40:04 2018 GMT
        Subject: C=US, ST=CA, O=Real Time Innovations, CN=perftest/emailAddress=pub@rti.com
        Subject Public Key Info:
            Public Key Algorithm: rsaEncryption
                Public-Key: (2048 bit)
                Modulus:
                    00:a9:df:b0:43:cf:17:76:6c:ed:21:c0:4f:ca:6c:
                    ce:f0:01:0f:2a:bf:19:46:73:da:3b:38:ce:cb:0c:
                    be:cb:8e:62:28:25:9f:89:0b:15:89:8e:f7:97:6b:
                    8a:1f:03:61:da:9e:16:ea:0f:e9:15:bb:fc:15:a0:
                    fd:57:c0:f2:bb:40:0f:d2:1c:8e:53:61:fe:8a:96:
                    1d:d1:30:d2:91:1c:96:31:b7:10:e6:5c:1d:51:d0:
                    1e:8b:32:8b:20:1f:56:f8:48:78:ef:47:27:ae:99:
                    c8:94:87:d3:86:ea:b7:a5:4f:9a:4e:be:dd:7f:f3:
                    8e:8c:23:2c:e1:c0:52:5e:28:b2:d2:7e:c9:8a:31:
                    1e:8c:d9:3c:98:bf:6f:db:b4:14:fe:64:45:c7:89:
                    76:dd:3b:8b:65:0a:b4:65:1d:4c:2d:71:41:ba:fe:
                    8a:2c:87:ce:af:61:0a:57:9f:86:71:fb:40:c3:53:
                    92:ba:ba:42:0c:da:c9:c3:35:32:9f:d2:66:02:21:
                    b6:cb:66:9a:0d:3d:01:6d:d1:b0:5f:37:15:32:08:
                    4a:14:ac:6a:1a:18:00:3e:fb:a9:29:d2:54:82:7a:
                    f2:52:a8:4f:ef:f7:bc:15:5a:32:5f:3f:2e:ee:6e:
                    04:52:ac:6c:d7:2a:7f:59:b4:d6:21:8f:29:06:9b:
                    3d:87
                Exponent: 65537 (0x10001)
        X509v3 extensions:
            X509v3 Basic Constraints: 
                CA:FALSE
            Netscape Comment: 
                OpenSSL Generated Certificate
            X509v3 Subject Key Identifier: 
                12:DE:44:73:14:4B:10:54:99:50:3B:1F:3B:35:8F:94:58:DF:35:0B
            X509v3 Authority Key Identifier: 
                DirName:/C=US/ST=CA/L=Sunnyvale/O=Real Time Innovations/CN=RTI CA/emailAddress=secure@rti.com
                serial:9A:C6:D3:C0:7A:55:D0:6C

    Signature Algorithm: sha256WithRSAEncryption
         90:b4:a8:71:67:fd:13:c8:44:d4:f6:f3:61:0e:2e:83:02:55:
         4b:de:de:96:db:96:b3:df:3e:f9:14:d5:14:2f:ee:d1:2e:13:
         88:ee:39:21:eb:f0:8c:c2:5a:e5:d0:40:95:f3:29:af:b9:c1:
         fc:8e:c9:7a:96:90:94:1e:41:eb:41:cf:85:ba:3f:f3:70:cb:
         f1:0c:50:27:bc:42:70:0a:22:c3:53:ae:39:d3:a2:3d:1c:dd:
         cb:5f:78:96:65:c9:0f:67:ac:c0:62:39:c8:00:f3:10:43:c9:
         46:b0:11:6d:eb:1c:4e:73:42:31:83:33:71:70:8e:90:d4:06:
         e3:27:95:83:a4:eb:a5:ae:84:d8:70:63:74:f4:01:96:78:47:
         f0:2e:6f:aa:87:dc:48:11:0f:06:43:0f:d9:d8:d3:f0:d0:3e:
         58:f3:8b:43:2f:b3:ea:f8:7a:c9:1d:e7:5a:6d:b7:63:31:a7:
         b2:97:b2:ad:e0:8f:e2:9c:8c:d5:22:f7:d7:1e:ed:1b:c2:b8:
         a3:29:85:22:d5:ed:37:9a:af:76:10:cb:b8:3c:c2:46:ae:45:
         af:84:a0:29:80:01:af:70:96:09:b2:bb:86:4d:4a:34:4a:9a:
         5b:1a:65:22:3c:cd:3c:36:04:c7:fa:fd:0d:e1:78:1f:0f:9e:
         4b:da:50:9c
-----BEGIN CERTIFICATE-----
MIIEXTCCA0WgAwIBAgIBATANBgkqhkiG9w0BAQsFADB+MQswCQYDVQQGEwJVUzEL
MAkGA1UECAwCQ0ExEjAQBgNVBAcMCVN1bm55dmFsZTEeMBwGA1UECgwVUmVhbCBU
aW1lIElubm92YXRpb25zMQ8wDQYDVQQDDAZSVEkgQ0ExHTAbBgkqhkiG9w0BCQEW
DnNlY3VyZUBydGkuY29tMB4XDTE3MDMwODEyNDAwNFoXDTE4MDMwODEyNDAwNFow
aTELMAkGA1UEBhMCVVMxCzAJBgNVBAgMAkNBMR4wHAYDVQQKDBVSZWFsIFRpbWUg
SW5ub3ZhdGlvbnMxETAPBgNVBAMMCHBlcmZ0ZXN0MRowGAYJKoZIhvcNAQkBFgtw
dWJAcnRpLmNvbTCCASIwDQYJKoZIhvcNAQEBBQADggEPADCCAQoCggEBAKnfsEPP
F3Zs7SHAT8pszvABDyq/GUZz2js4zssMvsuOYigln4kLFYmO95drih8DYdqeFuoP
6RW7/BWg/VfA8rtAD9IcjlNh/oqWHdEw0pEcljG3EOZcHVHQHosyiyAfVvhIeO9H
J66ZyJSH04bqt6VPmk6+3X/zjowjLOHAUl4ostJ+yYoxHozZPJi/b9u0FP5kRceJ
dt07i2UKtGUdTC1xQbr+iiyHzq9hClefhnH7QMNTkrq6QgzaycM1Mp/SZgIhtstm
mg09AW3RsF83FTIIShSsahoYAD77qSnSVIJ68lKoT+/3vBVaMl8/Lu5uBFKsbNcq
f1m01iGPKQabPYcCAwEAAaOB+jCB9zAJBgNVHRMEAjAAMCwGCWCGSAGG+EIBDQQf
Fh1PcGVuU1NMIEdlbmVyYXRlZCBDZXJ0aWZpY2F0ZTAdBgNVHQ4EFgQUEt5EcxRL
EFSZUDsfOzWPlFjfNQswgZwGA1UdIwSBlDCBkaGBg6SBgDB+MQswCQYDVQQGEwJV
UzELMAkGA1UECAwCQ0ExEjAQBgNVBAcMCVN1bm55dmFsZTEeMBwGA1UECgwVUmVh
bCBUaW1lIElubm92YXRpb25zMQ8wDQYDVQQDDAZSVEkgQ0ExHTAbBgkqhkiG9w0B
CQEWDnNlY3VyZUBydGkuY29tggkAmsbTwHpV0GwwDQYJKoZIhvcNAQELBQADggEB
AJC0qHFn/RPIRNT282EOLoMCVUve3pbblrPfPvkU1RQv7tEuE4juOSHr8IzCWuXQ
QJXzKa+5wfyOyXqWkJQeQetBz4W6P/Nwy/EMUCe8QnAKIsNTrjnToj0c3ctfeJZl
yQ9nrMBiOcgA8xBDyUawEW3rHE5zQjGDM3FwjpDUBuMnlYOk66WuhNhwY3T0AZZ4
R/Aub6qH3EgRDwZDD9nY0/DQPljzi0Mvs+r4eskd51ptt2Mxp7KXsq3gj+KcjNUi
99ce7RvCuKMphSLV7Tear3YQy7g8wkauRa+EoCmAAa9wlgmyu4ZNSjRKmlsaZSI8
zTw2BMf6/Q3heB8PnkvaUJw=
-----END CERTIFICATE-----
