Certificate:
    Data:
        Version: 3 (0x2)
        Serial Number: 1 (0x1)
    Signature Algorithm: sha256WithRSAEncryption
        Issuer: C=US, ST=CA, L=Sunnyvale, O=Real Time Innovations, CN=RTI CA/emailAddress=secure@rti.com
        Validity
            Not Before: Feb 25 20:45:35 2019 GMT
            Not After : Feb 22 20:45:35 2029 GMT
        Subject: C=US, ST=CA, O=Real Time Innovations, CN=perftest/emailAddress=pub@rti.com
        Subject Public Key Info:
            Public Key Algorithm: rsaEncryption
                Public-Key: (2048 bit)
                Modulus:
                    00:9b:4f:c9:a4:30:69:ad:72:6b:fe:bb:f1:02:cb:
                    d6:c0:d2:30:2e:ba:04:d4:d1:4a:11:c5:fa:41:a1:
                    74:12:8b:c1:09:2a:82:a0:54:7f:e2:8b:ef:14:26:
                    00:48:31:6d:87:3b:11:f9:bc:a5:da:54:b0:02:6e:
                    d1:dd:15:76:48:c9:73:e4:3f:a8:a5:b5:92:de:c0:
                    75:f3:5a:02:d8:d6:e6:e0:0e:6b:12:e7:ea:bc:7e:
                    6d:c8:1a:55:f9:c6:7e:84:5f:d9:cc:13:8f:6e:81:
                    06:13:ea:50:fc:de:c1:e6:af:23:a0:9b:ed:a5:dd:
                    6a:3c:36:27:9e:e1:ec:66:9a:aa:26:37:5c:42:a8:
                    a6:25:86:54:05:fc:41:e4:3a:1b:9a:05:7e:af:20:
                    eb:92:21:ac:6c:f9:6e:36:20:1a:00:4a:da:04:1a:
                    9d:b0:6e:29:5d:1e:52:aa:2b:77:6c:a1:5b:88:e2:
                    26:bd:8a:58:5a:5f:e9:1d:86:cc:72:c3:51:1b:6c:
                    67:9b:45:5f:45:0d:fe:ec:59:81:c4:51:d0:3c:f5:
                    df:bf:b9:f9:a2:48:52:0b:dd:80:17:6d:85:13:75:
                    06:8c:23:3e:79:6e:07:84:4c:48:4e:65:2c:08:e1:
                    1f:fa:42:19:ea:41:47:a6:23:2b:19:e3:14:e0:61:
                    38:91
                Exponent: 65537 (0x10001)
        X509v3 extensions:
            X509v3 Basic Constraints: 
                CA:FALSE
            Netscape Comment: 
                OpenSSL Generated Certificate
            X509v3 Subject Key Identifier: 
                BE:EE:86:84:9F:DC:CF:81:69:25:7C:4E:1B:71:A3:70:51:2A:2A:C1
            X509v3 Authority Key Identifier: 
                DirName:/C=US/ST=CA/L=Sunnyvale/O=Real Time Innovations/CN=RTI CA/emailAddress=secure@rti.com
                serial:E5:20:E2:8A:C0:0A:D1:76

    Signature Algorithm: sha256WithRSAEncryption
         6b:b4:4d:40:ec:76:78:36:87:4d:67:be:97:1a:37:2d:f9:23:
         f6:41:85:84:73:7e:69:45:05:ba:6e:19:60:94:76:b8:94:e0:
         dd:4e:a8:ae:4a:01:9e:ec:78:be:41:de:b1:af:02:02:ba:c6:
         f5:d2:b1:32:e9:71:7a:0d:d6:71:fc:d2:ed:93:a2:09:57:45:
         21:03:16:76:af:10:b4:4c:60:7d:f5:6a:37:04:1c:27:af:a5:
         07:e3:82:2e:95:8c:b9:b4:17:81:fc:ed:b0:25:20:0f:70:7f:
         03:0d:de:30:c7:c5:06:96:b9:bc:07:18:fd:07:d1:64:b9:77:
         21:17:6b:fe:0a:44:59:06:ea:45:ab:64:f2:05:4d:bd:38:4c:
         14:16:20:4f:1a:e8:38:07:2f:fb:c9:7d:d6:48:a9:d3:2c:d0:
         28:9c:f5:9f:51:9d:25:44:81:f6:0b:cf:c0:b4:7c:86:62:79:
         58:e4:86:99:bb:42:77:f5:59:ce:74:d2:00:5c:17:32:70:3e:
         c2:d6:40:99:4e:98:fb:c2:c3:2e:5d:21:63:d4:53:a7:91:4d:
         d8:23:4c:a6:a5:16:47:f3:d2:f7:52:55:92:9a:29:a9:cb:16:
         9b:d1:dd:37:61:45:68:9b:d9:4c:2e:49:e6:06:35:75:54:1d:
         5e:f2:f5:7d
-----BEGIN CERTIFICATE-----
MIIEXTCCA0WgAwIBAgIBATANBgkqhkiG9w0BAQsFADB+MQswCQYDVQQGEwJVUzEL
MAkGA1UECAwCQ0ExEjAQBgNVBAcMCVN1bm55dmFsZTEeMBwGA1UECgwVUmVhbCBU
aW1lIElubm92YXRpb25zMQ8wDQYDVQQDDAZSVEkgQ0ExHTAbBgkqhkiG9w0BCQEW
DnNlY3VyZUBydGkuY29tMB4XDTE5MDIyNTIwNDUzNVoXDTI5MDIyMjIwNDUzNVow
aTELMAkGA1UEBhMCVVMxCzAJBgNVBAgMAkNBMR4wHAYDVQQKDBVSZWFsIFRpbWUg
SW5ub3ZhdGlvbnMxETAPBgNVBAMMCHBlcmZ0ZXN0MRowGAYJKoZIhvcNAQkBFgtw
dWJAcnRpLmNvbTCCASIwDQYJKoZIhvcNAQEBBQADggEPADCCAQoCggEBAJtPyaQw
aa1ya/678QLL1sDSMC66BNTRShHF+kGhdBKLwQkqgqBUf+KL7xQmAEgxbYc7Efm8
pdpUsAJu0d0VdkjJc+Q/qKW1kt7AdfNaAtjW5uAOaxLn6rx+bcgaVfnGfoRf2cwT
j26BBhPqUPzeweavI6Cb7aXdajw2J57h7GaaqiY3XEKopiWGVAX8QeQ6G5oFfq8g
65IhrGz5bjYgGgBK2gQanbBuKV0eUqord2yhW4jiJr2KWFpf6R2GzHLDURtsZ5tF
X0UN/uxZgcRR0Dz137+5+aJIUgvdgBdthRN1BowjPnluB4RMSE5lLAjhH/pCGepB
R6YjKxnjFOBhOJECAwEAAaOB+jCB9zAJBgNVHRMEAjAAMCwGCWCGSAGG+EIBDQQf
Fh1PcGVuU1NMIEdlbmVyYXRlZCBDZXJ0aWZpY2F0ZTAdBgNVHQ4EFgQUvu6GhJ/c
z4FpJXxOG3GjcFEqKsEwgZwGA1UdIwSBlDCBkaGBg6SBgDB+MQswCQYDVQQGEwJV
UzELMAkGA1UECAwCQ0ExEjAQBgNVBAcMCVN1bm55dmFsZTEeMBwGA1UECgwVUmVh
bCBUaW1lIElubm92YXRpb25zMQ8wDQYDVQQDDAZSVEkgQ0ExHTAbBgkqhkiG9w0B
CQEWDnNlY3VyZUBydGkuY29tggkA5SDiisAK0XYwDQYJKoZIhvcNAQELBQADggEB
AGu0TUDsdng2h01nvpcaNy35I/ZBhYRzfmlFBbpuGWCUdriU4N1OqK5KAZ7seL5B
3rGvAgK6xvXSsTLpcXoN1nH80u2ToglXRSEDFnavELRMYH31ajcEHCevpQfjgi6V
jLm0F4H87bAlIA9wfwMN3jDHxQaWubwHGP0H0WS5dyEXa/4KRFkG6kWrZPIFTb04
TBQWIE8a6DgHL/vJfdZIqdMs0Cic9Z9RnSVEgfYLz8C0fIZieVjkhpm7Qnf1Wc50
0gBcFzJwPsLWQJlOmPvCwy5dIWPUU6eRTdgjTKalFkfz0vdSVZKaKanLFpvR3Tdh
RWib2UwuSeYGNXVUHV7y9X0=
-----END CERTIFICATE-----
