Certificate:
    Data:
        Version: 3 (0x2)
        Serial Number: 1 (0x1)
    Signature Algorithm: sha256WithRSAEncryption
        Issuer: C=US, ST=CA, L=Sunnyvale, O=Real Time Innovations, CN=RTI CA/emailAddress=secure@rti.com
        Validity
            Not Before: Apr  2 13:04:41 2018 GMT
            Not After : Mar 30 13:04:41 2028 GMT
        Subject: C=US, ST=CA, O=Real Time Innovations, CN=perftest/emailAddress=pub@rti.com
        Subject Public Key Info:
            Public Key Algorithm: rsaEncryption
                Public-Key: (2048 bit)
                Modulus:
                    00:ca:64:50:59:d6:3d:35:28:15:84:f4:57:4d:c1:
                    45:34:fe:3b:3a:0d:0a:62:f8:b4:0d:e2:cf:0b:00:
                    9b:c3:b8:ec:45:42:15:8b:03:1b:3a:bc:49:b5:ea:
                    d7:53:ce:1c:89:71:35:c8:c9:d7:ae:7d:2b:65:e5:
                    e1:b3:c7:18:9e:73:51:e3:fa:36:eb:40:6c:39:b4:
                    fd:35:6a:63:02:29:48:86:d1:da:d8:0a:43:d1:4a:
                    98:bf:ab:90:67:c7:67:09:b7:ee:6f:df:68:72:ac:
                    7c:de:39:9e:b7:b9:85:98:6a:d2:3d:41:29:54:22:
                    e5:f0:99:3d:43:a2:68:13:29:23:9b:be:87:aa:f8:
                    67:03:32:e0:ca:10:3d:09:ba:49:c3:d0:f7:17:72:
                    63:fa:ae:c3:cb:2c:26:b3:c3:8d:70:ce:93:cc:02:
                    aa:18:f5:1a:a1:4c:98:b7:4f:f3:d9:26:b5:90:2f:
                    d3:60:df:b6:52:77:48:04:81:a8:11:c0:da:fc:09:
                    74:3f:91:4c:31:9a:59:4d:e3:ac:8e:f4:d0:ae:7d:
                    2b:99:7b:b5:87:9b:39:77:bb:ad:dc:31:a4:10:35:
                    7a:68:57:3b:0f:8c:6a:4d:36:44:44:70:81:fb:aa:
                    0c:65:ad:d2:77:83:f8:4e:18:2a:9d:43:a2:d1:d9:
                    1a:2d
                Exponent: 65537 (0x10001)
        X509v3 extensions:
            X509v3 Basic Constraints: 
                CA:FALSE
            Netscape Comment: 
                OpenSSL Generated Certificate
            X509v3 Subject Key Identifier: 
                DB:6B:D5:86:FA:17:02:2E:34:CA:C4:59:3F:3B:23:59:3F:23:45:E0
            X509v3 Authority Key Identifier: 
                DirName:/C=US/ST=CA/L=Sunnyvale/O=Real Time Innovations/CN=RTI CA/emailAddress=secure@rti.com
                serial:9B:3A:22:8B:81:01:BE:F1

    Signature Algorithm: sha256WithRSAEncryption
         3c:3e:d3:ce:81:0a:a8:a7:86:2c:a2:25:d0:76:d1:02:06:cb:
         53:db:c0:5d:85:67:83:51:83:d7:16:52:ac:a8:4d:45:02:bf:
         f0:53:87:df:a3:e3:cc:84:53:81:6a:07:81:81:00:da:a8:99:
         b6:6c:49:d6:5b:63:78:b8:0c:06:99:ce:0c:8b:2f:aa:0e:23:
         ec:e1:ec:d1:f2:fb:8e:93:1c:81:2b:fa:84:2b:32:ba:9a:63:
         bc:55:82:fd:8b:93:03:85:6d:d0:bc:bf:98:fd:c9:eb:fa:64:
         cf:0d:b2:79:94:4c:b9:3a:57:a7:71:22:46:3d:08:ad:76:c4:
         14:bd:95:58:d6:a9:bc:f8:91:ee:a4:74:ae:8c:93:43:ef:41:
         4f:d7:e4:33:ef:48:89:11:e3:da:4b:85:03:d4:21:9d:da:47:
         92:d8:e0:7a:5e:fd:79:f5:13:a7:39:1d:49:c8:0f:34:b4:96:
         5f:bf:76:46:2f:08:71:31:33:54:51:e3:55:40:69:40:aa:75:
         a5:a9:0f:72:2b:21:bf:05:1c:25:72:86:a1:d0:a6:80:09:33:
         11:3a:8f:79:58:0a:9e:b8:c1:29:5b:32:a4:55:6b:49:01:c7:
         07:f5:eb:df:68:2d:c9:48:cf:3b:40:62:e5:3d:40:f5:31:55:
         4f:c5:27:f7
-----BEGIN CERTIFICATE-----
MIIEXTCCA0WgAwIBAgIBATANBgkqhkiG9w0BAQsFADB+MQswCQYDVQQGEwJVUzEL
MAkGA1UECAwCQ0ExEjAQBgNVBAcMCVN1bm55dmFsZTEeMBwGA1UECgwVUmVhbCBU
aW1lIElubm92YXRpb25zMQ8wDQYDVQQDDAZSVEkgQ0ExHTAbBgkqhkiG9w0BCQEW
DnNlY3VyZUBydGkuY29tMB4XDTE4MDQwMjEzMDQ0MVoXDTI4MDMzMDEzMDQ0MVow
aTELMAkGA1UEBhMCVVMxCzAJBgNVBAgMAkNBMR4wHAYDVQQKDBVSZWFsIFRpbWUg
SW5ub3ZhdGlvbnMxETAPBgNVBAMMCHBlcmZ0ZXN0MRowGAYJKoZIhvcNAQkBFgtw
dWJAcnRpLmNvbTCCASIwDQYJKoZIhvcNAQEBBQADggEPADCCAQoCggEBAMpkUFnW
PTUoFYT0V03BRTT+OzoNCmL4tA3izwsAm8O47EVCFYsDGzq8SbXq11POHIlxNcjJ
1659K2Xl4bPHGJ5zUeP6NutAbDm0/TVqYwIpSIbR2tgKQ9FKmL+rkGfHZwm37m/f
aHKsfN45nre5hZhq0j1BKVQi5fCZPUOiaBMpI5u+h6r4ZwMy4MoQPQm6ScPQ9xdy
Y/quw8ssJrPDjXDOk8wCqhj1GqFMmLdP89kmtZAv02DftlJ3SASBqBHA2vwJdD+R
TDGaWU3jrI700K59K5l7tYebOXe7rdwxpBA1emhXOw+Mak02RERwgfuqDGWt0neD
+E4YKp1DotHZGi0CAwEAAaOB+jCB9zAJBgNVHRMEAjAAMCwGCWCGSAGG+EIBDQQf
Fh1PcGVuU1NMIEdlbmVyYXRlZCBDZXJ0aWZpY2F0ZTAdBgNVHQ4EFgQU22vVhvoX
Ai40ysRZPzsjWT8jReAwgZwGA1UdIwSBlDCBkaGBg6SBgDB+MQswCQYDVQQGEwJV
UzELMAkGA1UECAwCQ0ExEjAQBgNVBAcMCVN1bm55dmFsZTEeMBwGA1UECgwVUmVh
bCBUaW1lIElubm92YXRpb25zMQ8wDQYDVQQDDAZSVEkgQ0ExHTAbBgkqhkiG9w0B
CQEWDnNlY3VyZUBydGkuY29tggkAmzoii4EBvvEwDQYJKoZIhvcNAQELBQADggEB
ADw+086BCqinhiyiJdB20QIGy1PbwF2FZ4NRg9cWUqyoTUUCv/BTh9+j48yEU4Fq
B4GBANqombZsSdZbY3i4DAaZzgyLL6oOI+zh7NHy+46THIEr+oQrMrqaY7xVgv2L
kwOFbdC8v5j9yev6ZM8NsnmUTLk6V6dxIkY9CK12xBS9lVjWqbz4ke6kdK6Mk0Pv
QU/X5DPvSIkR49pLhQPUIZ3aR5LY4Hpe/Xn1E6c5HUnIDzS0ll+/dkYvCHExM1RR
41VAaUCqdaWpD3IrIb8FHCVyhqHQpoAJMxE6j3lYCp64wSlbMqRVa0kBxwf1699o
LclIzztAYuU9QPUxVU/FJ/c=
-----END CERTIFICATE-----
