Certificate:
    Data:
        Version: 3 (0x2)
        Serial Number: 1 (0x1)
    Signature Algorithm: sha256WithRSAEncryption
        Issuer: C=US, ST=CA, L=Sunnyvale, O=Real Time Innovations, CN=RTI CA/emailAddress=secure@rti.com
        Validity
            Not Before: Jul 17 14:30:42 2016 GMT
            Not After : Jul 17 14:30:42 2017 GMT
        Subject: C=US, ST=CA, O=Real Time Innovations, CN=perftest/emailAddress=pub@rti.com
        Subject Public Key Info:
            Public Key Algorithm: rsaEncryption
                Public-Key: (2048 bit)
                Modulus:
                    00:cb:45:20:90:78:12:76:80:76:d2:dd:e5:9b:c2:
                    ff:c7:87:d9:18:4b:c3:d4:1f:25:ea:c7:78:40:f0:
                    00:f0:e4:1e:e4:c6:ac:a7:b9:7b:b4:66:ae:3f:d0:
                    20:bb:b6:f7:d8:89:3d:d2:ca:a7:b4:eb:fa:00:0b:
                    ae:8d:21:7c:87:1b:22:5e:ce:42:88:ce:f4:ad:ef:
                    3a:55:07:b5:c0:28:6c:37:c1:31:0f:78:63:1c:35:
                    98:7e:24:45:8d:10:6f:08:fc:8c:58:05:9f:5f:e1:
                    4e:c0:82:21:b4:12:38:b1:e2:88:80:7f:fb:6a:c1:
                    25:27:7e:e4:2a:9d:5f:08:cd:0d:95:dc:45:7d:9c:
                    2e:c4:33:31:28:45:14:e2:a1:5b:de:f2:e1:5b:82:
                    a4:ba:ef:2a:27:a8:a2:bd:ed:74:0b:62:8c:ca:10:
                    83:e8:7b:bd:33:9e:b6:bc:dd:ce:e0:4f:d4:f1:db:
                    6c:b4:ca:18:f0:24:76:80:e5:e4:3a:86:74:9b:d0:
                    29:90:1e:ff:0a:c4:95:1a:19:a2:1a:af:1b:9c:ee:
                    06:86:9c:d5:7d:30:99:56:b8:f4:f5:80:c4:43:16:
                    74:f4:01:ac:b3:41:95:85:2f:e0:1d:1a:06:ae:3f:
                    e8:61:22:1d:08:e2:83:d1:40:09:93:56:3b:fb:4c:
                    56:53
                Exponent: 65537 (0x10001)
        X509v3 extensions:
            X509v3 Basic Constraints: 
                CA:FALSE
            Netscape Comment: 
                OpenSSL Generated Certificate
            X509v3 Subject Key Identifier: 
                48:16:20:6E:78:16:06:CE:4B:1B:CC:EE:AC:6D:49:CC:A6:8B:80:9D
            X509v3 Authority Key Identifier: 
                DirName:/C=US/ST=CA/L=Sunnyvale/O=Real Time Innovations/CN=RTI CA/emailAddress=secure@rti.com
                serial:C3:27:AC:1E:16:83:B2:49

    Signature Algorithm: sha256WithRSAEncryption
         a7:93:b1:cf:f3:76:d9:15:d1:ff:d1:a3:09:e3:2e:2b:9e:24:
         88:7e:49:4b:ec:93:95:43:7e:47:b6:9e:f8:e0:d6:73:29:f1:
         86:e9:3e:13:dd:0b:02:d6:47:85:d0:f7:f7:88:14:88:9c:62:
         92:da:3f:83:3e:4e:f3:11:33:b6:c8:fe:d7:a3:e3:83:bc:dd:
         b4:25:70:60:dd:fe:ec:79:9c:9e:47:9d:a6:ae:eb:c6:5c:bf:
         48:7a:83:14:a6:f0:46:0b:7d:98:94:31:80:4d:95:78:96:82:
         80:72:c7:b7:d0:88:4d:60:cc:8b:2e:dc:ea:44:36:5b:5a:1b:
         0e:53:26:39:c7:3b:13:47:16:d2:52:c6:db:37:77:d3:06:e8:
         03:07:c6:6c:b1:25:07:eb:2d:5d:34:50:6b:a0:76:a3:39:b8:
         c3:b8:7d:55:95:6e:a6:14:13:38:94:63:1d:f8:7a:54:45:6b:
         7a:06:c0:38:66:de:a9:75:c3:86:36:b1:3b:e4:fb:66:ea:79:
         c7:bc:e5:f3:c2:13:7e:ed:b2:40:74:18:d8:f7:b6:f5:94:4a:
         7f:89:de:96:c9:4e:20:8e:15:f9:e4:28:c5:d9:cf:f3:40:6f:
         ca:4e:07:4d:19:57:84:78:82:a7:23:09:15:2c:bc:37:71:88:
         d1:13:0e:24
-----BEGIN CERTIFICATE-----
MIIEXTCCA0WgAwIBAgIBATANBgkqhkiG9w0BAQsFADB+MQswCQYDVQQGEwJVUzEL
MAkGA1UECAwCQ0ExEjAQBgNVBAcMCVN1bm55dmFsZTEeMBwGA1UECgwVUmVhbCBU
aW1lIElubm92YXRpb25zMQ8wDQYDVQQDDAZSVEkgQ0ExHTAbBgkqhkiG9w0BCQEW
DnNlY3VyZUBydGkuY29tMB4XDTE2MDcxNzE0MzA0MloXDTE3MDcxNzE0MzA0Mlow
aTELMAkGA1UEBhMCVVMxCzAJBgNVBAgMAkNBMR4wHAYDVQQKDBVSZWFsIFRpbWUg
SW5ub3ZhdGlvbnMxETAPBgNVBAMMCHBlcmZ0ZXN0MRowGAYJKoZIhvcNAQkBFgtw
dWJAcnRpLmNvbTCCASIwDQYJKoZIhvcNAQEBBQADggEPADCCAQoCggEBAMtFIJB4
EnaAdtLd5ZvC/8eH2RhLw9QfJerHeEDwAPDkHuTGrKe5e7Rmrj/QILu299iJPdLK
p7Tr+gALro0hfIcbIl7OQojO9K3vOlUHtcAobDfBMQ94Yxw1mH4kRY0Qbwj8jFgF
n1/hTsCCIbQSOLHiiIB/+2rBJSd+5CqdXwjNDZXcRX2cLsQzMShFFOKhW97y4VuC
pLrvKieoor3tdAtijMoQg+h7vTOetrzdzuBP1PHbbLTKGPAkdoDl5DqGdJvQKZAe
/wrElRoZohqvG5zuBoac1X0wmVa49PWAxEMWdPQBrLNBlYUv4B0aBq4/6GEiHQji
g9FACZNWO/tMVlMCAwEAAaOB+jCB9zAJBgNVHRMEAjAAMCwGCWCGSAGG+EIBDQQf
Fh1PcGVuU1NMIEdlbmVyYXRlZCBDZXJ0aWZpY2F0ZTAdBgNVHQ4EFgQUSBYgbngW
Bs5LG8zurG1JzKaLgJ0wgZwGA1UdIwSBlDCBkaGBg6SBgDB+MQswCQYDVQQGEwJV
UzELMAkGA1UECAwCQ0ExEjAQBgNVBAcMCVN1bm55dmFsZTEeMBwGA1UECgwVUmVh
bCBUaW1lIElubm92YXRpb25zMQ8wDQYDVQQDDAZSVEkgQ0ExHTAbBgkqhkiG9w0B
CQEWDnNlY3VyZUBydGkuY29tggkAwyesHhaDskkwDQYJKoZIhvcNAQELBQADggEB
AKeTsc/zdtkV0f/RownjLiueJIh+SUvsk5VDfke2nvjg1nMp8YbpPhPdCwLWR4XQ
9/eIFIicYpLaP4M+TvMRM7bI/tej44O83bQlcGDd/ux5nJ5Hnaau68Zcv0h6gxSm
8EYLfZiUMYBNlXiWgoByx7fQiE1gzIsu3OpENltaGw5TJjnHOxNHFtJSxts3d9MG
6AMHxmyxJQfrLV00UGugdqM5uMO4fVWVbqYUEziUYx34elRFa3oGwDhm3ql1w4Y2
sTvk+2bqece85fPCE37tskB0GNj3tvWUSn+J3pbJTiCOFfnkKMXZz/NAb8pOB00Z
V4R4gqcjCRUsvDdxiNETDiQ=
-----END CERTIFICATE-----
