Certificate:
    Data:
        Version: 3 (0x2)
        Serial Number: 1 (0x1)
    Signature Algorithm: sha256WithRSAEncryption
        Issuer: C=US, ST=CA, L=Sunnyvale, O=Real Time Innovations, CN=RTI CA/emailAddress=secure@rti.com
        Validity
            Not Before: Sep 28 09:04:10 2018 GMT
            Not After : Sep 25 09:04:10 2028 GMT
        Subject: C=US, ST=CA, O=Real Time Innovations, CN=perftest/emailAddress=pub@rti.com
        Subject Public Key Info:
            Public Key Algorithm: rsaEncryption
                Public-Key: (2048 bit)
                Modulus:
                    00:a9:92:f6:a4:9b:6b:23:97:8f:fa:28:be:25:a5:
                    80:cc:30:fe:5f:8c:d4:b5:06:17:67:7a:4b:a7:b3:
                    a0:d0:67:6d:44:0e:5c:e3:90:4e:ac:de:b3:80:3d:
                    3d:41:4c:ff:f1:1b:94:39:4d:2c:d1:df:ac:5c:f8:
                    e4:53:d6:40:2a:21:ed:2c:41:7f:49:31:8d:e6:5f:
                    3d:42:3f:4f:41:87:fd:d9:40:99:93:cd:03:2c:ad:
                    96:43:31:c2:4c:ac:c2:c2:e2:fb:cb:18:b2:d6:61:
                    ac:4c:8c:bc:d9:3c:be:71:5d:06:20:29:f6:08:68:
                    e8:e8:96:69:23:6b:d6:89:b9:95:b9:fc:be:e4:ba:
                    26:f7:f3:a1:cc:10:b3:52:b0:2b:41:0a:71:d4:09:
                    29:b7:0e:83:aa:24:7f:36:ab:57:51:3d:7b:04:56:
                    69:8f:13:77:3f:f0:52:99:4f:50:81:94:69:bf:70:
                    f8:23:7c:02:3c:5d:24:02:8f:8b:bb:71:16:ef:9c:
                    10:04:01:f7:7a:87:4b:e8:c2:a0:f0:92:ac:ba:82:
                    ce:44:10:76:83:ac:00:27:7d:49:2d:25:72:c8:8f:
                    b9:5b:57:f9:b6:9c:1e:02:35:06:e7:de:8d:58:30:
                    27:b3:3a:36:df:e4:8f:10:e3:e6:81:e0:08:14:bc:
                    6e:77
                Exponent: 65537 (0x10001)
        X509v3 extensions:
            X509v3 Basic Constraints: 
                CA:FALSE
            Netscape Comment: 
                OpenSSL Generated Certificate
            X509v3 Subject Key Identifier: 
                39:33:39:75:3F:E7:45:43:72:36:0F:F1:98:42:5A:F6:BA:24:84:EE
            X509v3 Authority Key Identifier: 
                DirName:/C=US/ST=CA/L=Sunnyvale/O=Real Time Innovations/CN=RTI CA/emailAddress=secure@rti.com
                serial:D8:11:42:65:93:B5:6A:FA

    Signature Algorithm: sha256WithRSAEncryption
         18:e7:06:1e:f7:65:85:b4:18:68:ee:5d:4a:8a:9f:ca:f1:e8:
         d0:f7:95:3d:7a:18:b7:5f:3f:57:d8:56:6e:b3:07:12:0f:14:
         33:ff:1d:f0:43:8f:19:a6:a0:2d:e4:64:c2:07:f3:6f:dd:bb:
         61:de:67:81:6c:49:64:a5:54:f9:29:9b:a4:8c:65:9c:f2:fb:
         7c:ba:9f:61:94:9a:a0:ff:12:f3:fd:31:6a:35:f0:94:70:c1:
         18:52:9f:19:3e:74:9a:08:cf:bf:85:45:bb:37:2c:8a:b0:85:
         e4:9c:0b:5f:97:82:f4:0a:d8:8d:46:af:93:5d:18:2a:c1:f0:
         63:b7:39:50:37:be:15:01:bc:94:6f:4e:dc:80:c9:6d:94:00:
         7f:2c:4c:47:e5:5a:c6:3e:b9:ae:32:05:2c:c6:56:fb:2d:8a:
         b3:88:2b:61:e0:74:da:2e:2b:8e:dc:7d:af:35:12:82:8b:c6:
         4a:08:61:6d:cf:84:65:a7:da:ac:e4:be:fb:8e:dd:96:91:c0:
         87:bc:02:71:f7:9b:c6:48:d9:58:76:b3:d5:44:46:f9:1b:90:
         36:0a:9b:73:bf:d7:60:20:94:f7:a6:56:3d:95:5e:c0:2b:6c:
         8c:aa:cd:02:7c:aa:17:e4:dc:fa:cd:1d:96:01:c8:56:8e:45:
         63:66:a5:67
-----BEGIN CERTIFICATE-----
MIIEXTCCA0WgAwIBAgIBATANBgkqhkiG9w0BAQsFADB+MQswCQYDVQQGEwJVUzEL
MAkGA1UECAwCQ0ExEjAQBgNVBAcMCVN1bm55dmFsZTEeMBwGA1UECgwVUmVhbCBU
aW1lIElubm92YXRpb25zMQ8wDQYDVQQDDAZSVEkgQ0ExHTAbBgkqhkiG9w0BCQEW
DnNlY3VyZUBydGkuY29tMB4XDTE4MDkyODA5MDQxMFoXDTI4MDkyNTA5MDQxMFow
aTELMAkGA1UEBhMCVVMxCzAJBgNVBAgMAkNBMR4wHAYDVQQKDBVSZWFsIFRpbWUg
SW5ub3ZhdGlvbnMxETAPBgNVBAMMCHBlcmZ0ZXN0MRowGAYJKoZIhvcNAQkBFgtw
dWJAcnRpLmNvbTCCASIwDQYJKoZIhvcNAQEBBQADggEPADCCAQoCggEBAKmS9qSb
ayOXj/ooviWlgMww/l+M1LUGF2d6S6ezoNBnbUQOXOOQTqzes4A9PUFM//EblDlN
LNHfrFz45FPWQCoh7SxBf0kxjeZfPUI/T0GH/dlAmZPNAyytlkMxwkyswsLi+8sY
stZhrEyMvNk8vnFdBiAp9gho6OiWaSNr1om5lbn8vuS6JvfzocwQs1KwK0EKcdQJ
KbcOg6okfzarV1E9ewRWaY8Tdz/wUplPUIGUab9w+CN8AjxdJAKPi7txFu+cEAQB
93qHS+jCoPCSrLqCzkQQdoOsACd9SS0lcsiPuVtX+bacHgI1BufejVgwJ7M6Nt/k
jxDj5oHgCBS8bncCAwEAAaOB+jCB9zAJBgNVHRMEAjAAMCwGCWCGSAGG+EIBDQQf
Fh1PcGVuU1NMIEdlbmVyYXRlZCBDZXJ0aWZpY2F0ZTAdBgNVHQ4EFgQUOTM5dT/n
RUNyNg/xmEJa9rokhO4wgZwGA1UdIwSBlDCBkaGBg6SBgDB+MQswCQYDVQQGEwJV
UzELMAkGA1UECAwCQ0ExEjAQBgNVBAcMCVN1bm55dmFsZTEeMBwGA1UECgwVUmVh
bCBUaW1lIElubm92YXRpb25zMQ8wDQYDVQQDDAZSVEkgQ0ExHTAbBgkqhkiG9w0B
CQEWDnNlY3VyZUBydGkuY29tggkA2BFCZZO1avowDQYJKoZIhvcNAQELBQADggEB
ABjnBh73ZYW0GGjuXUqKn8rx6ND3lT16GLdfP1fYVm6zBxIPFDP/HfBDjxmmoC3k
ZMIH82/du2HeZ4FsSWSlVPkpm6SMZZzy+3y6n2GUmqD/EvP9MWo18JRwwRhSnxk+
dJoIz7+FRbs3LIqwheScC1+XgvQK2I1Gr5NdGCrB8GO3OVA3vhUBvJRvTtyAyW2U
AH8sTEflWsY+ua4yBSzGVvstirOIK2HgdNouK47cfa81EoKLxkoIYW3PhGWn2qzk
vvuO3ZaRwIe8AnH3m8ZI2Vh2s9VERvkbkDYKm3O/12AglPemVj2VXsArbIyqzQJ8
qhfk3PrNHZYByFaORWNmpWc=
-----END CERTIFICATE-----
