Certificate:
    Data:
        Version: 3 (0x2)
        Serial Number: 1 (0x1)
    Signature Algorithm: sha256WithRSAEncryption
        Issuer: C=US, ST=CA, L=Sunnyvale, O=Real Time Innovations, CN=RTI CA/emailAddress=secure@rti.com
        Validity
            Not Before: Mar  9 00:48:28 2019 GMT
            Not After : Mar  6 00:48:28 2029 GMT
        Subject: C=US, ST=CA, O=Real Time Innovations, CN=perftest/emailAddress=pub@rti.com
        Subject Public Key Info:
            Public Key Algorithm: rsaEncryption
                Public-Key: (2048 bit)
                Modulus:
                    00:d3:56:f0:32:ea:12:00:ec:9f:6f:c5:f8:97:cf:
                    e7:08:9c:4c:54:fb:dd:d2:64:56:fb:9b:5f:70:46:
                    6e:5c:70:c1:83:bb:24:21:d3:f9:85:87:ff:08:b6:
                    4b:b7:2d:85:af:c1:3a:d0:3b:89:1b:64:2a:5f:8b:
                    e1:10:ad:17:6b:38:1f:dd:7e:6f:48:e1:11:7c:6c:
                    3a:f9:97:2c:ac:09:99:c9:fb:af:ae:40:2f:a3:88:
                    50:99:bc:1c:7f:76:7b:76:ae:36:e3:89:d3:c9:d4:
                    aa:9d:c0:17:a5:49:f5:c6:5f:cb:7d:53:7f:0b:1a:
                    e1:a1:e4:59:3b:b1:57:d4:dc:6b:2b:81:01:7f:1b:
                    d7:3f:83:80:f6:2b:cc:a7:6e:ef:77:8f:9a:be:1d:
                    04:54:8a:71:c6:07:ae:7a:89:79:cd:a2:77:45:88:
                    84:4d:76:3d:2d:61:ff:8d:bc:14:17:cb:d9:8e:02:
                    32:af:b1:bd:ef:74:fd:a4:48:69:35:a2:c8:77:66:
                    68:e6:f2:2a:58:bd:24:eb:e6:ab:d9:a3:8f:8a:d2:
                    0d:46:b4:ff:b3:27:67:aa:59:04:91:01:6d:a8:4a:
                    0c:8c:6a:3a:24:b7:7d:69:3a:93:81:8e:4b:4a:0d:
                    68:7e:78:e8:31:a9:a1:79:57:96:73:a9:0e:68:65:
                    17:4f
                Exponent: 65537 (0x10001)
        X509v3 extensions:
            X509v3 Basic Constraints: 
                CA:FALSE
            Netscape Comment: 
                OpenSSL Generated Certificate
            X509v3 Subject Key Identifier: 
                2F:AD:A5:99:6D:27:30:73:33:9B:5A:12:58:A8:CD:59:51:CC:A9:8C
            X509v3 Authority Key Identifier: 
                DirName:/C=US/ST=CA/L=Sunnyvale/O=Real Time Innovations/CN=RTI CA/emailAddress=secure@rti.com
                serial:E5:C6:DB:24:55:C7:80:F1

    Signature Algorithm: sha256WithRSAEncryption
         da:09:64:52:b9:f6:69:99:ec:a6:d7:f0:ec:1e:b4:28:c0:64:
         30:13:41:0f:7c:23:21:9c:80:fa:d8:51:2b:d8:5a:d5:de:2e:
         4c:78:ba:42:e4:e6:27:79:32:f4:79:ab:5d:03:30:4e:96:f4:
         2d:2e:e5:97:99:73:db:1a:5b:a3:13:16:c3:5a:da:de:d0:76:
         83:9d:7f:03:0c:34:b8:d1:88:90:cb:17:c1:25:67:04:23:9f:
         d3:5d:c2:2c:88:9e:b7:4a:6b:1b:e2:cf:27:a4:02:55:00:8b:
         65:f7:b3:a7:00:d3:62:2b:62:30:72:77:fc:11:d9:54:75:ce:
         5c:13:2d:f2:52:64:d1:ff:3b:4f:55:d2:cc:e4:d4:95:78:df:
         ab:c1:69:43:f5:7e:be:ea:60:e1:24:19:21:3c:1e:b3:04:b0:
         4c:48:b3:09:06:ab:cc:05:ac:d7:d9:83:cf:0f:c6:70:6f:11:
         79:14:83:cd:d4:8a:4e:3b:79:46:8d:db:8a:56:07:6f:9a:f3:
         69:38:4d:a1:a7:a0:94:0f:1e:49:02:57:72:81:5f:47:47:52:
         70:20:da:1b:6a:39:3a:22:19:8c:1d:a5:5c:42:ee:da:f9:ae:
         10:a9:f7:06:e4:87:8a:8c:be:fd:b4:e7:9f:6f:a8:da:85:b6:
         75:f7:ab:a8
-----BEGIN CERTIFICATE-----
MIIEXTCCA0WgAwIBAgIBATANBgkqhkiG9w0BAQsFADB+MQswCQYDVQQGEwJVUzEL
MAkGA1UECAwCQ0ExEjAQBgNVBAcMCVN1bm55dmFsZTEeMBwGA1UECgwVUmVhbCBU
aW1lIElubm92YXRpb25zMQ8wDQYDVQQDDAZSVEkgQ0ExHTAbBgkqhkiG9w0BCQEW
DnNlY3VyZUBydGkuY29tMB4XDTE5MDMwOTAwNDgyOFoXDTI5MDMwNjAwNDgyOFow
aTELMAkGA1UEBhMCVVMxCzAJBgNVBAgMAkNBMR4wHAYDVQQKDBVSZWFsIFRpbWUg
SW5ub3ZhdGlvbnMxETAPBgNVBAMMCHBlcmZ0ZXN0MRowGAYJKoZIhvcNAQkBFgtw
dWJAcnRpLmNvbTCCASIwDQYJKoZIhvcNAQEBBQADggEPADCCAQoCggEBANNW8DLq
EgDsn2/F+JfP5wicTFT73dJkVvubX3BGblxwwYO7JCHT+YWH/wi2S7ctha/BOtA7
iRtkKl+L4RCtF2s4H91+b0jhEXxsOvmXLKwJmcn7r65AL6OIUJm8HH92e3auNuOJ
08nUqp3AF6VJ9cZfy31Tfwsa4aHkWTuxV9TcayuBAX8b1z+DgPYrzKdu73ePmr4d
BFSKccYHrnqJec2id0WIhE12PS1h/428FBfL2Y4CMq+xve90/aRIaTWiyHdmaOby
Kli9JOvmq9mjj4rSDUa0/7MnZ6pZBJEBbahKDIxqOiS3fWk6k4GOS0oNaH546DGp
oXlXlnOpDmhlF08CAwEAAaOB+jCB9zAJBgNVHRMEAjAAMCwGCWCGSAGG+EIBDQQf
Fh1PcGVuU1NMIEdlbmVyYXRlZCBDZXJ0aWZpY2F0ZTAdBgNVHQ4EFgQUL62lmW0n
MHMzm1oSWKjNWVHMqYwwgZwGA1UdIwSBlDCBkaGBg6SBgDB+MQswCQYDVQQGEwJV
UzELMAkGA1UECAwCQ0ExEjAQBgNVBAcMCVN1bm55dmFsZTEeMBwGA1UECgwVUmVh
bCBUaW1lIElubm92YXRpb25zMQ8wDQYDVQQDDAZSVEkgQ0ExHTAbBgkqhkiG9w0B
CQEWDnNlY3VyZUBydGkuY29tggkA5cbbJFXHgPEwDQYJKoZIhvcNAQELBQADggEB
ANoJZFK59mmZ7KbX8OwetCjAZDATQQ98IyGcgPrYUSvYWtXeLkx4ukLk5id5MvR5
q10DME6W9C0u5ZeZc9saW6MTFsNa2t7QdoOdfwMMNLjRiJDLF8ElZwQjn9NdwiyI
nrdKaxvizyekAlUAi2X3s6cA02IrYjByd/wR2VR1zlwTLfJSZNH/O09V0szk1JV4
36vBaUP1fr7qYOEkGSE8HrMEsExIswkGq8wFrNfZg88PxnBvEXkUg83Uik47eUaN
24pWB2+a82k4TaGnoJQPHkkCV3KBX0dHUnAg2htqOToiGYwdpVxC7tr5rhCp9wbk
h4qMvv20559vqNqFtnX3q6g=
-----END CERTIFICATE-----
