Certificate:
    Data:
        Version: 3 (0x2)
        Serial Number: 1 (0x1)
    Signature Algorithm: sha256WithRSAEncryption
        Issuer: C=US, ST=CA, L=Sunnyvale, O=Real Time Innovations, CN=RTI CA/emailAddress=secure@rti.com
        Validity
            Not Before: Sep 19 10:18:36 2016 GMT
            Not After : Sep 19 10:18:36 2017 GMT
        Subject: C=US, ST=CA, O=Real Time Innovations, CN=perftest/emailAddress=pub@rti.com
        Subject Public Key Info:
            Public Key Algorithm: rsaEncryption
                Public-Key: (2048 bit)
                Modulus:
                    00:c4:04:11:62:3e:1d:be:8b:ac:25:fd:d6:cb:52:
                    e1:20:a1:91:a1:18:ff:55:c3:b4:9f:9f:b2:b6:1e:
                    3b:b2:95:e2:0d:62:7a:7a:3e:b3:d9:37:53:df:4b:
                    77:80:14:fa:e1:ed:73:23:18:f6:01:80:e3:68:d9:
                    71:02:f9:ba:4f:5c:9f:c5:8e:8b:fc:a6:fa:ba:86:
                    e5:0b:39:b7:44:91:78:21:7c:91:25:b2:89:e3:e0:
                    6b:1e:43:15:17:1a:81:71:0c:5d:9b:10:5c:0e:35:
                    57:e0:73:f3:25:7e:8f:19:c7:4b:a5:2a:2d:03:3d:
                    ce:6b:69:3f:30:43:4a:75:50:44:e4:09:5d:1b:f9:
                    af:f9:b2:da:90:85:93:0f:a6:24:e2:08:cf:d3:97:
                    46:3c:c4:fa:ae:c5:89:59:52:6d:4a:53:1c:b7:da:
                    06:be:77:0e:f6:c9:b0:0a:5f:78:8a:19:e9:e5:bb:
                    77:9a:03:4b:a4:2e:97:0e:62:9a:ef:f4:a7:ad:09:
                    37:23:3f:5f:12:70:ed:b4:e9:07:f9:f8:1d:a3:f8:
                    ef:3e:01:bc:0b:10:f5:70:2e:d2:32:8b:2a:04:18:
                    c5:62:45:1b:92:ce:16:08:a2:7a:4f:59:83:06:0c:
                    fd:b0:fa:14:ba:93:17:b8:74:fa:d6:91:26:c9:53:
                    75:05
                Exponent: 65537 (0x10001)
        X509v3 extensions:
            X509v3 Basic Constraints: 
                CA:FALSE
            Netscape Comment: 
                OpenSSL Generated Certificate
            X509v3 Subject Key Identifier: 
                99:27:95:0E:BA:0D:AA:F7:AD:7E:C5:FD:A3:43:E9:3D:46:23:0B:7B
            X509v3 Authority Key Identifier: 
                DirName:/C=US/ST=CA/L=Sunnyvale/O=Real Time Innovations/CN=RTI CA/emailAddress=secure@rti.com
                serial:FF:FE:15:52:C9:FF:BD:FD

    Signature Algorithm: sha256WithRSAEncryption
         4a:01:05:96:7c:b3:07:e2:82:12:ca:26:97:d7:37:45:c2:70:
         e7:df:d0:34:b2:2d:9d:c4:43:6d:85:a4:a8:75:61:f6:e5:a3:
         23:df:b7:04:b7:da:34:8f:e9:b4:fb:15:fa:f3:4d:9d:6d:65:
         e8:cd:ec:92:29:e3:e9:54:f3:63:78:a3:97:c4:dd:87:9a:6c:
         ac:0c:61:d7:53:fa:b2:cf:ed:8e:33:0b:dc:47:dd:ba:7f:86:
         8b:cb:6a:f1:fe:06:29:29:c2:d1:48:32:e5:3e:1a:04:5c:d1:
         23:b7:64:9b:4f:e6:ed:68:14:41:9d:fa:f5:bd:38:e8:c0:8d:
         08:c0:8f:58:37:d7:8e:10:94:93:53:33:6a:c7:20:1a:b4:d8:
         78:4d:31:f5:2a:b8:20:89:79:05:9f:37:3f:e0:53:0c:fa:09:
         e9:b4:72:76:34:de:c9:33:9d:95:c6:a2:0d:04:4f:a3:a2:ad:
         22:5e:9e:e2:90:3d:95:ea:83:f7:36:5c:78:ad:36:24:59:18:
         14:48:e5:12:e0:7d:74:57:a1:c9:46:e4:bd:51:64:53:9d:f2:
         0b:6f:4d:90:6d:66:97:06:5a:04:cb:43:00:85:7d:ac:ae:f0:
         c4:01:74:4d:89:16:38:f5:41:cb:60:2d:51:92:6a:02:fe:e6:
         90:77:49:91
-----BEGIN CERTIFICATE-----
MIIEXTCCA0WgAwIBAgIBATANBgkqhkiG9w0BAQsFADB+MQswCQYDVQQGEwJVUzEL
MAkGA1UECAwCQ0ExEjAQBgNVBAcMCVN1bm55dmFsZTEeMBwGA1UECgwVUmVhbCBU
aW1lIElubm92YXRpb25zMQ8wDQYDVQQDDAZSVEkgQ0ExHTAbBgkqhkiG9w0BCQEW
DnNlY3VyZUBydGkuY29tMB4XDTE2MDkxOTEwMTgzNloXDTE3MDkxOTEwMTgzNlow
aTELMAkGA1UEBhMCVVMxCzAJBgNVBAgMAkNBMR4wHAYDVQQKDBVSZWFsIFRpbWUg
SW5ub3ZhdGlvbnMxETAPBgNVBAMMCHBlcmZ0ZXN0MRowGAYJKoZIhvcNAQkBFgtw
dWJAcnRpLmNvbTCCASIwDQYJKoZIhvcNAQEBBQADggEPADCCAQoCggEBAMQEEWI+
Hb6LrCX91stS4SChkaEY/1XDtJ+fsrYeO7KV4g1ieno+s9k3U99Ld4AU+uHtcyMY
9gGA42jZcQL5uk9cn8WOi/ym+rqG5Qs5t0SReCF8kSWyiePgax5DFRcagXEMXZsQ
XA41V+Bz8yV+jxnHS6UqLQM9zmtpPzBDSnVQROQJXRv5r/my2pCFkw+mJOIIz9OX
RjzE+q7FiVlSbUpTHLfaBr53DvbJsApfeIoZ6eW7d5oDS6Qulw5imu/0p60JNyM/
XxJw7bTpB/n4HaP47z4BvAsQ9XAu0jKLKgQYxWJFG5LOFgiiek9ZgwYM/bD6FLqT
F7h0+taRJslTdQUCAwEAAaOB+jCB9zAJBgNVHRMEAjAAMCwGCWCGSAGG+EIBDQQf
Fh1PcGVuU1NMIEdlbmVyYXRlZCBDZXJ0aWZpY2F0ZTAdBgNVHQ4EFgQUmSeVDroN
qvetfsX9o0PpPUYjC3swgZwGA1UdIwSBlDCBkaGBg6SBgDB+MQswCQYDVQQGEwJV
UzELMAkGA1UECAwCQ0ExEjAQBgNVBAcMCVN1bm55dmFsZTEeMBwGA1UECgwVUmVh
bCBUaW1lIElubm92YXRpb25zMQ8wDQYDVQQDDAZSVEkgQ0ExHTAbBgkqhkiG9w0B
CQEWDnNlY3VyZUBydGkuY29tggkA//4VUsn/vf0wDQYJKoZIhvcNAQELBQADggEB
AEoBBZZ8swfighLKJpfXN0XCcOff0DSyLZ3EQ22FpKh1YfbloyPftwS32jSP6bT7
FfrzTZ1tZejN7JIp4+lU82N4o5fE3YeabKwMYddT+rLP7Y4zC9xH3bp/hovLavH+
BikpwtFIMuU+GgRc0SO3ZJtP5u1oFEGd+vW9OOjAjQjAj1g3144QlJNTM2rHIBq0
2HhNMfUquCCJeQWfNz/gUwz6Cem0cnY03skznZXGog0ET6OirSJenuKQPZXqg/c2
XHitNiRZGBRI5RLgfXRXoclG5L1RZFOd8gtvTZBtZpcGWgTLQwCFfayu8MQBdE2J
Fjj1QctgLVGSagL+5pB3SZE=
-----END CERTIFICATE-----
