Certificate:
    Data:
        Version: 3 (0x2)
        Serial Number: 2 (0x2)
    Signature Algorithm: sha256WithRSAEncryption
        Issuer: C=US, ST=CA, L=Sunnyvale, O=Real Time Innovations, CN=RTI CA/emailAddress=secure@rti.com
        Validity
            Not Before: Jul 17 14:30:44 2016 GMT
            Not After : Jul 17 14:30:44 2017 GMT
        Subject: C=US, ST=CA, O=Real Time Innovations, CN=perftest/emailAddress=sub@rti.com
        Subject Public Key Info:
            Public Key Algorithm: rsaEncryption
                Public-Key: (2048 bit)
                Modulus:
                    00:b9:12:3e:59:f7:92:11:80:72:42:9b:a2:fb:27:
                    e9:6a:24:c4:89:fe:af:5e:07:62:1d:b5:14:13:ca:
                    74:8d:fd:15:a9:53:df:6e:99:54:e6:8f:83:f1:ab:
                    3e:de:d0:9c:de:52:45:60:47:e2:2f:b0:11:3d:80:
                    de:5a:3c:58:47:ac:3c:f3:61:f5:56:15:20:7a:3c:
                    05:1d:d6:48:fa:02:ef:36:2c:cc:75:7a:04:32:c0:
                    0d:3c:f3:e8:7e:e1:c5:18:84:8d:1c:36:4c:21:4c:
                    0e:6a:83:5a:19:4c:18:0a:f0:64:2b:d5:bd:55:9a:
                    48:92:1d:ce:34:9e:b6:08:6b:f4:a8:19:6e:6c:96:
                    44:b0:82:b2:ad:36:ad:d6:01:7e:75:52:53:81:89:
                    46:31:39:01:28:97:c4:52:99:05:cd:6c:a7:f2:f3:
                    0b:5b:6b:51:7e:4a:0e:5f:90:92:fc:64:b2:d0:e3:
                    30:c6:62:19:88:44:e6:92:18:78:d4:57:8f:d0:5f:
                    02:13:48:4e:57:4f:92:1a:c4:89:91:38:cf:26:f4:
                    04:10:16:90:1b:20:53:30:76:03:e1:00:98:f6:92:
                    e9:89:46:48:2d:f6:7c:e5:57:b6:04:ec:9c:ae:d5:
                    12:45:72:54:10:78:52:6a:35:f4:70:3d:70:40:b2:
                    24:4f
                Exponent: 65537 (0x10001)
        X509v3 extensions:
            X509v3 Basic Constraints: 
                CA:FALSE
            Netscape Comment: 
                OpenSSL Generated Certificate
            X509v3 Subject Key Identifier: 
                0C:FD:CF:A8:F9:1E:D6:4B:8B:4B:7B:C5:87:76:B1:77:C1:D5:34:44
            X509v3 Authority Key Identifier: 
                DirName:/C=US/ST=CA/L=Sunnyvale/O=Real Time Innovations/CN=RTI CA/emailAddress=secure@rti.com
                serial:C3:27:AC:1E:16:83:B2:49

    Signature Algorithm: sha256WithRSAEncryption
         48:59:c4:f2:63:8f:ef:4b:5d:24:a9:a6:fc:f2:48:24:00:6a:
         57:ba:06:a8:3f:67:82:16:5b:64:47:03:f3:4f:d2:6c:4f:eb:
         cb:9b:cf:89:8a:4a:1e:b8:8e:22:cf:d7:b5:01:e8:07:5b:67:
         15:de:fa:e7:5f:4b:a9:5c:f0:4d:13:34:74:93:5b:31:39:7f:
         d8:ab:47:3e:66:4e:6f:4a:09:af:4e:0a:85:3e:a3:8e:ca:8b:
         26:2e:04:eb:4f:b1:1c:4e:80:7b:13:c4:97:05:99:f9:e3:f3:
         24:bf:90:26:01:32:37:09:5a:9d:b5:39:4b:09:5b:2c:9c:1b:
         fb:38:f2:d6:03:67:93:d9:a5:24:38:21:c4:a6:d2:3a:2a:2e:
         5d:8e:6c:29:6f:7c:e8:48:1d:80:04:c2:20:d5:93:47:e9:5b:
         aa:ef:5c:d7:ff:32:fd:ab:3c:25:33:e4:e8:87:f7:4f:17:05:
         78:0c:13:f3:58:12:ad:49:f2:84:61:b3:e5:8b:86:be:89:db:
         89:d7:2d:d5:1a:76:b4:3f:a1:2a:42:f0:91:94:cc:55:24:a6:
         5a:f4:d7:0e:c6:33:a8:ab:b0:da:60:cb:95:ed:3d:81:61:11:
         13:7f:e3:82:e6:94:76:b7:d6:49:ca:07:1b:27:1d:89:cb:02:
         7f:7c:bf:1f
-----BEGIN CERTIFICATE-----
MIIEXTCCA0WgAwIBAgIBAjANBgkqhkiG9w0BAQsFADB+MQswCQYDVQQGEwJVUzEL
MAkGA1UECAwCQ0ExEjAQBgNVBAcMCVN1bm55dmFsZTEeMBwGA1UECgwVUmVhbCBU
aW1lIElubm92YXRpb25zMQ8wDQYDVQQDDAZSVEkgQ0ExHTAbBgkqhkiG9w0BCQEW
DnNlY3VyZUBydGkuY29tMB4XDTE2MDcxNzE0MzA0NFoXDTE3MDcxNzE0MzA0NFow
aTELMAkGA1UEBhMCVVMxCzAJBgNVBAgMAkNBMR4wHAYDVQQKDBVSZWFsIFRpbWUg
SW5ub3ZhdGlvbnMxETAPBgNVBAMMCHBlcmZ0ZXN0MRowGAYJKoZIhvcNAQkBFgtz
dWJAcnRpLmNvbTCCASIwDQYJKoZIhvcNAQEBBQADggEPADCCAQoCggEBALkSPln3
khGAckKbovsn6WokxIn+r14HYh21FBPKdI39FalT326ZVOaPg/GrPt7QnN5SRWBH
4i+wET2A3lo8WEesPPNh9VYVIHo8BR3WSPoC7zYszHV6BDLADTzz6H7hxRiEjRw2
TCFMDmqDWhlMGArwZCvVvVWaSJIdzjSetghr9KgZbmyWRLCCsq02rdYBfnVSU4GJ
RjE5ASiXxFKZBc1sp/LzC1trUX5KDl+QkvxkstDjMMZiGYhE5pIYeNRXj9BfAhNI
TldPkhrEiZE4zyb0BBAWkBsgUzB2A+EAmPaS6YlGSC32fOVXtgTsnK7VEkVyVBB4
Umo19HA9cECyJE8CAwEAAaOB+jCB9zAJBgNVHRMEAjAAMCwGCWCGSAGG+EIBDQQf
Fh1PcGVuU1NMIEdlbmVyYXRlZCBDZXJ0aWZpY2F0ZTAdBgNVHQ4EFgQUDP3PqPke
1kuLS3vFh3axd8HVNEQwgZwGA1UdIwSBlDCBkaGBg6SBgDB+MQswCQYDVQQGEwJV
UzELMAkGA1UECAwCQ0ExEjAQBgNVBAcMCVN1bm55dmFsZTEeMBwGA1UECgwVUmVh
bCBUaW1lIElubm92YXRpb25zMQ8wDQYDVQQDDAZSVEkgQ0ExHTAbBgkqhkiG9w0B
CQEWDnNlY3VyZUBydGkuY29tggkAwyesHhaDskkwDQYJKoZIhvcNAQELBQADggEB
AEhZxPJjj+9LXSSppvzySCQAale6Bqg/Z4IWW2RHA/NP0mxP68ubz4mKSh64jiLP
17UB6AdbZxXe+udfS6lc8E0TNHSTWzE5f9irRz5mTm9KCa9OCoU+o47KiyYuBOtP
sRxOgHsTxJcFmfnj8yS/kCYBMjcJWp21OUsJWyycG/s48tYDZ5PZpSQ4IcSm0joq
Ll2ObClvfOhIHYAEwiDVk0fpW6rvXNf/Mv2rPCUz5OiH908XBXgME/NYEq1J8oRh
s+WLhr6J24nXLdUadrQ/oSpC8JGUzFUkplr01w7GM6irsNpgy5XtPYFhERN/44Lm
lHa31knKBxsnHYnLAn98vx8=
-----END CERTIFICATE-----
