Certificate:
    Data:
        Version: 3 (0x2)
        Serial Number: 2 (0x2)
    Signature Algorithm: sha256WithRSAEncryption
        Issuer: C=US, ST=CA, L=Sunnyvale, O=Real Time Innovations, CN=RTI CA/emailAddress=secure@rti.com
        Validity
            Not Before: Oct 24 14:04:20 2019 GMT
            Not After : Oct 21 14:04:20 2029 GMT
        Subject: C=US, ST=CA, O=Real Time Innovations, CN=perftest/emailAddress=sub@rti.com
        Subject Public Key Info:
            Public Key Algorithm: rsaEncryption
                Public-Key: (2048 bit)
                Modulus:
                    00:a5:85:d4:92:58:27:27:dc:df:dd:42:b5:4a:10:
                    00:ba:11:d4:3a:9c:e0:bb:7f:5f:aa:db:21:0b:ec:
                    4d:f5:3c:f8:77:68:d3:d2:b9:72:36:8b:b1:d2:44:
                    71:0b:9e:64:32:b0:af:6b:98:ab:82:36:eb:05:2a:
                    08:2c:93:33:f5:6f:92:f3:df:7a:d7:2f:e2:e3:59:
                    76:e9:e8:71:eb:de:ab:f1:92:ae:40:5c:b5:d1:67:
                    5c:f0:9c:ba:30:18:5d:63:01:aa:50:6e:a9:72:97:
                    1b:ac:91:11:e4:5c:d0:1f:14:2f:7a:c9:ac:08:09:
                    1c:0e:e1:2b:97:b4:92:e0:b3:6e:de:72:b7:ae:1d:
                    f9:f0:29:0a:b7:cb:a4:ba:d8:d2:0f:d3:81:b3:1c:
                    c9:01:4d:d6:13:db:99:d3:8e:7b:85:fe:71:45:fc:
                    4b:af:a3:c8:10:15:46:3b:3d:e3:d4:60:44:58:bc:
                    c8:93:0c:0e:2c:c0:eb:6b:cc:5c:f5:9a:6c:2c:45:
                    08:47:92:b9:ba:14:67:fe:6e:ea:b5:07:28:e7:2a:
                    bf:bb:79:5a:b5:67:d2:af:0a:3b:73:31:a3:8e:21:
                    fc:4b:81:1a:9a:0c:1c:75:07:32:2d:85:5a:ae:cd:
                    7b:23:75:9c:61:d4:b9:ae:48:c6:2b:49:d6:00:6e:
                    00:ef
                Exponent: 65537 (0x10001)
        X509v3 extensions:
            X509v3 Basic Constraints: 
                CA:FALSE
            Netscape Comment: 
                OpenSSL Generated Certificate
            X509v3 Subject Key Identifier: 
                A3:CB:2D:D2:4C:2E:50:61:FA:41:73:4E:50:24:3B:17:FB:DA:8A:C5
            X509v3 Authority Key Identifier: 
                DirName:/C=US/ST=CA/L=Sunnyvale/O=Real Time Innovations/CN=RTI CA/emailAddress=secure@rti.com
                serial:DD:DF:D4:7B:14:63:72:D3

    Signature Algorithm: sha256WithRSAEncryption
         90:e1:a7:b8:3c:ac:a6:d0:46:d1:c9:14:3f:36:a0:c6:a3:af:
         08:ce:ec:1d:be:94:cd:35:59:20:40:93:e8:cf:7a:cb:27:91:
         23:31:5d:90:df:27:0a:6b:23:45:ea:0b:e0:db:cc:29:3e:11:
         e7:03:d2:af:59:51:7f:85:a8:10:71:b7:e4:d9:c1:b1:31:77:
         3b:18:68:87:3d:b2:78:11:30:a5:32:09:20:aa:7f:df:6e:b9:
         15:cd:69:88:75:4b:11:87:76:46:e1:b2:87:e6:04:40:48:66:
         fc:11:da:f1:59:dc:99:a6:ee:29:c0:77:9e:6a:a0:22:6c:bd:
         9a:27:11:41:78:a4:39:6c:db:2b:07:7a:ec:25:4b:6b:41:d6:
         f6:aa:96:19:d2:cd:75:6c:7b:0d:79:ba:11:f6:7d:24:7c:34:
         25:1c:15:97:bc:d8:fc:f6:d9:37:01:2e:58:2e:50:76:ff:c9:
         9b:4b:75:3b:f2:24:e7:0b:b2:24:73:14:a3:8a:3a:34:30:70:
         b2:0b:9a:9c:1b:ea:ca:b8:8a:0e:4d:c1:c0:65:de:73:c9:08:
         35:6f:fc:a7:92:64:74:48:d8:93:a1:15:a7:ab:12:bb:a5:4f:
         1c:30:74:78:61:cb:8a:76:83:ec:98:3a:c8:b1:c0:85:92:77:
         be:13:01:1c
-----BEGIN CERTIFICATE-----
MIIEXTCCA0WgAwIBAgIBAjANBgkqhkiG9w0BAQsFADB+MQswCQYDVQQGEwJVUzEL
MAkGA1UECAwCQ0ExEjAQBgNVBAcMCVN1bm55dmFsZTEeMBwGA1UECgwVUmVhbCBU
aW1lIElubm92YXRpb25zMQ8wDQYDVQQDDAZSVEkgQ0ExHTAbBgkqhkiG9w0BCQEW
DnNlY3VyZUBydGkuY29tMB4XDTE5MTAyNDE0MDQyMFoXDTI5MTAyMTE0MDQyMFow
aTELMAkGA1UEBhMCVVMxCzAJBgNVBAgMAkNBMR4wHAYDVQQKDBVSZWFsIFRpbWUg
SW5ub3ZhdGlvbnMxETAPBgNVBAMMCHBlcmZ0ZXN0MRowGAYJKoZIhvcNAQkBFgtz
dWJAcnRpLmNvbTCCASIwDQYJKoZIhvcNAQEBBQADggEPADCCAQoCggEBAKWF1JJY
Jyfc391CtUoQALoR1Dqc4Lt/X6rbIQvsTfU8+Hdo09K5cjaLsdJEcQueZDKwr2uY
q4I26wUqCCyTM/VvkvPfetcv4uNZdunoceveq/GSrkBctdFnXPCcujAYXWMBqlBu
qXKXG6yREeRc0B8UL3rJrAgJHA7hK5e0kuCzbt5yt64d+fApCrfLpLrY0g/TgbMc
yQFN1hPbmdOOe4X+cUX8S6+jyBAVRjs949RgRFi8yJMMDizA62vMXPWabCxFCEeS
uboUZ/5u6rUHKOcqv7t5WrVn0q8KO3Mxo44h/EuBGpoMHHUHMi2FWq7NeyN1nGHU
ua5IxitJ1gBuAO8CAwEAAaOB+jCB9zAJBgNVHRMEAjAAMCwGCWCGSAGG+EIBDQQf
Fh1PcGVuU1NMIEdlbmVyYXRlZCBDZXJ0aWZpY2F0ZTAdBgNVHQ4EFgQUo8st0kwu
UGH6QXNOUCQ7F/vaisUwgZwGA1UdIwSBlDCBkaGBg6SBgDB+MQswCQYDVQQGEwJV
UzELMAkGA1UECAwCQ0ExEjAQBgNVBAcMCVN1bm55dmFsZTEeMBwGA1UECgwVUmVh
bCBUaW1lIElubm92YXRpb25zMQ8wDQYDVQQDDAZSVEkgQ0ExHTAbBgkqhkiG9w0B
CQEWDnNlY3VyZUBydGkuY29tggkA3d/UexRjctMwDQYJKoZIhvcNAQELBQADggEB
AJDhp7g8rKbQRtHJFD82oMajrwjO7B2+lM01WSBAk+jPessnkSMxXZDfJwprI0Xq
C+DbzCk+EecD0q9ZUX+FqBBxt+TZwbExdzsYaIc9sngRMKUyCSCqf99uuRXNaYh1
SxGHdkbhsofmBEBIZvwR2vFZ3Jmm7inAd55qoCJsvZonEUF4pDls2ysHeuwlS2tB
1vaqlhnSzXVsew15uhH2fSR8NCUcFZe82Pz22TcBLlguUHb/yZtLdTvyJOcLsiRz
FKOKOjQwcLILmpwb6sq4ig5NwcBl3nPJCDVv/KeSZHRI2JOhFaerErulTxwwdHhh
y4p2g+yYOsixwIWSd74TARw=
-----END CERTIFICATE-----
