Certificate:
    Data:
        Version: 3 (0x2)
        Serial Number: 2 (0x2)
    Signature Algorithm: sha256WithRSAEncryption
        Issuer: C=US, ST=CA, L=Sunnyvale, O=Real Time Innovations, CN=RTI CA/emailAddress=secure@rti.com
        Validity
            Not Before: Feb 25 20:45:38 2019 GMT
            Not After : Feb 22 20:45:38 2029 GMT
        Subject: C=US, ST=CA, O=Real Time Innovations, CN=perftest/emailAddress=sub@rti.com
        Subject Public Key Info:
            Public Key Algorithm: rsaEncryption
                Public-Key: (2048 bit)
                Modulus:
                    00:d9:1e:e8:c1:3b:c8:9a:bc:a2:d7:fa:9d:49:d9:
                    2c:d6:15:34:b4:1d:c3:f3:ac:c5:05:e7:eb:25:c6:
                    a9:32:4a:0e:b3:33:ee:4a:21:03:42:bf:5f:0e:92:
                    8f:73:b4:74:85:27:87:3e:cd:6b:41:96:73:6a:96:
                    f4:ee:9f:b0:f9:bf:be:b8:85:fd:93:8f:17:28:e5:
                    55:80:88:80:15:52:13:aa:32:16:a7:62:2d:58:42:
                    4b:81:08:ef:02:71:e7:2b:ca:9b:ae:3b:d8:51:38:
                    8e:c5:b9:eb:e9:d1:67:e2:e8:98:4c:5a:e5:61:3c:
                    47:6f:30:b0:08:4c:2b:37:c7:4a:ff:9d:49:5e:13:
                    c3:55:2c:55:49:56:bc:15:13:29:76:a9:ce:a3:63:
                    82:a2:b4:67:72:12:86:51:2f:2a:e4:be:a4:a2:b7:
                    0e:09:b2:9d:65:b1:1a:c9:c8:3b:55:36:d0:54:3f:
                    e5:1e:64:9a:dc:96:25:60:12:6f:eb:1e:67:3c:bd:
                    46:cf:2e:1b:ba:84:65:b9:f8:2c:62:75:66:90:57:
                    12:7b:bd:4f:5f:ba:97:71:f6:6c:28:13:25:cd:5f:
                    ce:83:8e:e0:29:c2:53:44:35:5f:52:27:1a:ae:3e:
                    f6:bb:f4:78:cd:a2:e1:79:ab:03:9a:e4:80:46:50:
                    14:e5
                Exponent: 65537 (0x10001)
        X509v3 extensions:
            X509v3 Basic Constraints: 
                CA:FALSE
            Netscape Comment: 
                OpenSSL Generated Certificate
            X509v3 Subject Key Identifier: 
                33:2A:1A:E2:59:64:86:24:6A:2F:8A:AF:82:27:92:88:8B:73:19:DD
            X509v3 Authority Key Identifier: 
                DirName:/C=US/ST=CA/L=Sunnyvale/O=Real Time Innovations/CN=RTI CA/emailAddress=secure@rti.com
                serial:E5:20:E2:8A:C0:0A:D1:76

    Signature Algorithm: sha256WithRSAEncryption
         80:72:60:60:37:33:92:98:0e:04:23:31:05:6e:c1:04:0e:3c:
         49:c8:d7:eb:c9:85:c2:05:9a:17:b8:08:ad:3d:99:a8:af:e5:
         3d:dc:c1:e7:99:b2:aa:ea:9b:31:93:86:0c:1d:4e:af:3a:f0:
         b0:39:a9:3f:a1:42:6f:51:02:19:20:ef:1f:36:90:ad:08:11:
         03:e8:0b:bf:ab:6d:c3:ce:6b:27:c4:81:34:83:20:d4:38:97:
         a2:61:3b:77:ae:e1:09:f0:ba:02:6d:9f:c4:82:d8:50:40:5d:
         be:6f:20:78:4a:f1:f5:8e:a9:05:51:65:cf:28:a5:7a:63:90:
         29:0d:5c:0d:7f:bb:71:ea:b6:a9:84:4c:fb:63:60:b4:1b:9e:
         4c:f1:1f:e3:1d:7e:e8:54:36:46:1f:1a:14:5e:3b:8b:33:75:
         ba:e6:ba:b5:8f:e3:d8:5b:d3:10:a1:af:ee:72:42:59:9d:42:
         ea:3d:84:de:aa:b3:a6:10:9e:7a:5b:6f:a4:34:ef:be:5a:14:
         04:4b:8f:dd:aa:00:cb:41:cb:f4:b1:c4:91:5a:9d:96:13:ab:
         84:15:25:53:a0:9a:c2:f0:89:24:4c:c4:20:3f:bd:b8:93:f9:
         07:19:02:0e:24:f6:41:b4:fa:ce:f1:59:72:b3:c8:25:64:08:
         b5:84:24:bc
-----BEGIN CERTIFICATE-----
MIIEXTCCA0WgAwIBAgIBAjANBgkqhkiG9w0BAQsFADB+MQswCQYDVQQGEwJVUzEL
MAkGA1UECAwCQ0ExEjAQBgNVBAcMCVN1bm55dmFsZTEeMBwGA1UECgwVUmVhbCBU
aW1lIElubm92YXRpb25zMQ8wDQYDVQQDDAZSVEkgQ0ExHTAbBgkqhkiG9w0BCQEW
DnNlY3VyZUBydGkuY29tMB4XDTE5MDIyNTIwNDUzOFoXDTI5MDIyMjIwNDUzOFow
aTELMAkGA1UEBhMCVVMxCzAJBgNVBAgMAkNBMR4wHAYDVQQKDBVSZWFsIFRpbWUg
SW5ub3ZhdGlvbnMxETAPBgNVBAMMCHBlcmZ0ZXN0MRowGAYJKoZIhvcNAQkBFgtz
dWJAcnRpLmNvbTCCASIwDQYJKoZIhvcNAQEBBQADggEPADCCAQoCggEBANke6ME7
yJq8otf6nUnZLNYVNLQdw/OsxQXn6yXGqTJKDrMz7kohA0K/Xw6Sj3O0dIUnhz7N
a0GWc2qW9O6fsPm/vriF/ZOPFyjlVYCIgBVSE6oyFqdiLVhCS4EI7wJx5yvKm647
2FE4jsW56+nRZ+LomExa5WE8R28wsAhMKzfHSv+dSV4Tw1UsVUlWvBUTKXapzqNj
gqK0Z3IShlEvKuS+pKK3DgmynWWxGsnIO1U20FQ/5R5kmtyWJWASb+seZzy9Rs8u
G7qEZbn4LGJ1ZpBXEnu9T1+6l3H2bCgTJc1fzoOO4CnCU0Q1X1InGq4+9rv0eM2i
4XmrA5rkgEZQFOUCAwEAAaOB+jCB9zAJBgNVHRMEAjAAMCwGCWCGSAGG+EIBDQQf
Fh1PcGVuU1NMIEdlbmVyYXRlZCBDZXJ0aWZpY2F0ZTAdBgNVHQ4EFgQUMyoa4llk
hiRqL4qvgieSiItzGd0wgZwGA1UdIwSBlDCBkaGBg6SBgDB+MQswCQYDVQQGEwJV
UzELMAkGA1UECAwCQ0ExEjAQBgNVBAcMCVN1bm55dmFsZTEeMBwGA1UECgwVUmVh
bCBUaW1lIElubm92YXRpb25zMQ8wDQYDVQQDDAZSVEkgQ0ExHTAbBgkqhkiG9w0B
CQEWDnNlY3VyZUBydGkuY29tggkA5SDiisAK0XYwDQYJKoZIhvcNAQELBQADggEB
AIByYGA3M5KYDgQjMQVuwQQOPEnI1+vJhcIFmhe4CK09maiv5T3cweeZsqrqmzGT
hgwdTq868LA5qT+hQm9RAhkg7x82kK0IEQPoC7+rbcPOayfEgTSDINQ4l6JhO3eu
4QnwugJtn8SC2FBAXb5vIHhK8fWOqQVRZc8opXpjkCkNXA1/u3HqtqmETPtjYLQb
nkzxH+MdfuhUNkYfGhReO4szdbrmurWP49hb0xChr+5yQlmdQuo9hN6qs6YQnnpb
b6Q0775aFARLj92qAMtBy/SxxJFanZYTq4QVJVOgmsLwiSRMxCA/vbiT+QcZAg4k
9kG0+s7xWXKzyCVkCLWEJLw=
-----END CERTIFICATE-----
