Certificate:
    Data:
        Version: 3 (0x2)
        Serial Number: 2 (0x2)
    Signature Algorithm: sha256WithRSAEncryption
        Issuer: C=US, ST=CA, L=Sunnyvale, O=Real Time Innovations, CN=RTI CA/emailAddress=secure@rti.com
        Validity
            Not Before: Aug  2 15:53:09 2016 GMT
            Not After : Aug  2 15:53:09 2017 GMT
        Subject: C=US, ST=CA, O=Real Time Innovations, CN=perftest/emailAddress=sub@rti.com
        Subject Public Key Info:
            Public Key Algorithm: rsaEncryption
                Public-Key: (2048 bit)
                Modulus:
                    00:e8:69:d1:62:99:d0:d6:12:ba:bb:42:81:b4:38:
                    67:89:64:e8:d2:63:55:97:74:21:6b:6f:c1:27:a8:
                    47:c4:72:89:95:ab:55:fa:b6:0a:c9:2b:c7:a0:c9:
                    10:de:2f:fa:b4:4c:fe:79:65:af:ff:be:82:16:01:
                    58:90:8c:de:12:37:0c:42:e3:6d:8a:c7:1b:30:f4:
                    bf:85:c0:cf:97:99:6e:0e:f7:66:85:7e:7f:17:95:
                    46:ec:d4:df:02:7e:5a:e6:47:16:df:97:2f:ce:46:
                    5c:c9:75:f0:ae:4d:ef:36:89:12:9d:23:60:2f:42:
                    e9:1a:52:b5:4b:79:51:5b:d9:0e:a4:66:13:a4:9b:
                    42:16:29:38:f9:46:74:0b:74:b9:c8:3f:b5:36:d6:
                    31:75:fd:10:4c:ab:3c:db:67:3e:97:0e:3c:cb:2a:
                    14:34:54:5f:e1:fa:b6:8a:d7:23:cb:e1:c5:4a:b6:
                    1e:e7:9b:f3:1c:97:e5:c5:86:9e:a3:4f:4a:6f:d0:
                    58:b9:c0:c0:4a:05:03:8a:b9:99:27:3a:5b:12:06:
                    71:f2:25:05:b0:29:bf:9d:1a:4e:5f:cf:98:01:cc:
                    d3:5d:42:0a:dd:91:dc:92:63:a1:23:c5:b2:d2:b3:
                    96:d1:e8:5f:fb:7e:13:a4:76:d6:fe:fa:0e:f8:fa:
                    ba:45
                Exponent: 65537 (0x10001)
        X509v3 extensions:
            X509v3 Basic Constraints: 
                CA:FALSE
            Netscape Comment: 
                OpenSSL Generated Certificate
            X509v3 Subject Key Identifier: 
                03:06:58:13:60:B5:86:B7:84:1E:1D:29:49:9F:80:C5:C4:83:0F:0D
            X509v3 Authority Key Identifier: 
                DirName:/C=US/ST=CA/L=Sunnyvale/O=Real Time Innovations/CN=RTI CA/emailAddress=secure@rti.com
                serial:DC:7E:48:86:41:FB:20:6F

    Signature Algorithm: sha256WithRSAEncryption
         6f:72:d6:10:bb:ad:0b:f4:a9:dd:2a:1b:30:1d:d4:af:70:27:
         b4:c6:87:4e:41:25:05:bf:6a:3a:1e:f0:15:ad:eb:0c:cf:c0:
         50:49:c9:a2:17:8e:37:92:24:fa:f2:85:3e:a0:22:d1:ce:8c:
         ac:67:26:b0:ac:60:51:e5:2c:26:87:98:b6:e3:33:33:db:78:
         e3:64:b1:70:36:de:31:84:2c:eb:fb:ba:22:fb:a7:98:81:64:
         f4:43:20:94:7c:a3:46:49:ac:ee:12:51:96:f9:ac:98:69:f3:
         a1:7f:4f:15:b7:70:51:a8:74:b8:c6:eb:ef:50:bb:a9:58:e9:
         ec:a6:09:b1:a7:21:b0:b5:a2:e6:f3:ca:e2:d2:30:f1:9f:78:
         1f:cd:b9:76:3b:c4:9f:6c:eb:d6:a9:1b:2d:5c:d2:1a:34:e4:
         db:8d:73:35:f9:66:1b:fd:45:39:9f:1a:9c:db:77:55:b9:e9:
         05:b7:1f:6c:ed:69:d4:69:ed:4c:d3:0c:12:e6:b4:8b:c1:c8:
         11:bd:a6:84:ab:03:eb:2a:b0:59:6e:0a:4a:97:81:60:86:9c:
         a7:4a:85:e6:90:f2:b6:6e:1d:cf:10:5b:83:f4:bc:bd:40:4b:
         41:83:22:34:f2:57:9f:43:ef:73:3e:76:72:1d:a2:24:74:d2:
         5a:a6:ce:fa
-----BEGIN CERTIFICATE-----
MIIEXTCCA0WgAwIBAgIBAjANBgkqhkiG9w0BAQsFADB+MQswCQYDVQQGEwJVUzEL
MAkGA1UECAwCQ0ExEjAQBgNVBAcMCVN1bm55dmFsZTEeMBwGA1UECgwVUmVhbCBU
aW1lIElubm92YXRpb25zMQ8wDQYDVQQDDAZSVEkgQ0ExHTAbBgkqhkiG9w0BCQEW
DnNlY3VyZUBydGkuY29tMB4XDTE2MDgwMjE1NTMwOVoXDTE3MDgwMjE1NTMwOVow
aTELMAkGA1UEBhMCVVMxCzAJBgNVBAgMAkNBMR4wHAYDVQQKDBVSZWFsIFRpbWUg
SW5ub3ZhdGlvbnMxETAPBgNVBAMMCHBlcmZ0ZXN0MRowGAYJKoZIhvcNAQkBFgtz
dWJAcnRpLmNvbTCCASIwDQYJKoZIhvcNAQEBBQADggEPADCCAQoCggEBAOhp0WKZ
0NYSurtCgbQ4Z4lk6NJjVZd0IWtvwSeoR8RyiZWrVfq2Cskrx6DJEN4v+rRM/nll
r/++ghYBWJCM3hI3DELjbYrHGzD0v4XAz5eZbg73ZoV+fxeVRuzU3wJ+WuZHFt+X
L85GXMl18K5N7zaJEp0jYC9C6RpStUt5UVvZDqRmE6SbQhYpOPlGdAt0ucg/tTbW
MXX9EEyrPNtnPpcOPMsqFDRUX+H6torXI8vhxUq2Hueb8xyX5cWGnqNPSm/QWLnA
wEoFA4q5mSc6WxIGcfIlBbApv50aTl/PmAHM011CCt2R3JJjoSPFstKzltHoX/t+
E6R21v76Dvj6ukUCAwEAAaOB+jCB9zAJBgNVHRMEAjAAMCwGCWCGSAGG+EIBDQQf
Fh1PcGVuU1NMIEdlbmVyYXRlZCBDZXJ0aWZpY2F0ZTAdBgNVHQ4EFgQUAwZYE2C1
hreEHh0pSZ+AxcSDDw0wgZwGA1UdIwSBlDCBkaGBg6SBgDB+MQswCQYDVQQGEwJV
UzELMAkGA1UECAwCQ0ExEjAQBgNVBAcMCVN1bm55dmFsZTEeMBwGA1UECgwVUmVh
bCBUaW1lIElubm92YXRpb25zMQ8wDQYDVQQDDAZSVEkgQ0ExHTAbBgkqhkiG9w0B
CQEWDnNlY3VyZUBydGkuY29tggkA3H5IhkH7IG8wDQYJKoZIhvcNAQELBQADggEB
AG9y1hC7rQv0qd0qGzAd1K9wJ7TGh05BJQW/ajoe8BWt6wzPwFBJyaIXjjeSJPry
hT6gItHOjKxnJrCsYFHlLCaHmLbjMzPbeONksXA23jGELOv7uiL7p5iBZPRDIJR8
o0ZJrO4SUZb5rJhp86F/TxW3cFGodLjG6+9Qu6lY6eymCbGnIbC1oubzyuLSMPGf
eB/NuXY7xJ9s69apGy1c0ho05NuNczX5Zhv9RTmfGpzbd1W56QW3H2ztadRp7UzT
DBLmtIvByBG9poSrA+sqsFluCkqXgWCGnKdKheaQ8rZuHc8QW4P0vL1AS0GDIjTy
V59D73M+dnIdoiR00lqmzvo=
-----END CERTIFICATE-----
