Certificate:
    Data:
        Version: 3 (0x2)
        Serial Number: 2 (0x2)
    Signature Algorithm: sha256WithRSAEncryption
        Issuer: C=US, ST=CA, L=Sunnyvale, O=Real Time Innovations, CN=RTI CA/emailAddress=secure@rti.com
        Validity
            Not Before: Mar  9 00:48:30 2019 GMT
            Not After : Mar  6 00:48:30 2029 GMT
        Subject: C=US, ST=CA, O=Real Time Innovations, CN=perftest/emailAddress=sub@rti.com
        Subject Public Key Info:
            Public Key Algorithm: rsaEncryption
                Public-Key: (2048 bit)
                Modulus:
                    00:a9:19:20:01:35:a4:78:42:a3:ec:3a:82:6a:72:
                    1f:e8:79:d8:8b:cc:95:a0:5e:5f:2b:a2:15:cb:88:
                    1a:14:57:e7:43:4b:a3:c5:d1:ac:8b:67:67:31:4a:
                    24:f4:68:44:92:c1:54:c3:00:bb:5d:73:58:a6:84:
                    61:d1:bd:cc:58:19:53:45:7a:19:00:9d:49:6c:57:
                    cf:49:83:eb:94:2f:f5:b4:0d:f2:5c:a7:6b:bc:77:
                    af:46:33:07:5d:ca:d6:e5:23:3f:88:48:c6:d9:72:
                    1b:e2:f5:53:6a:7a:53:b7:49:9c:e6:31:05:0e:00:
                    f0:06:7c:6e:0c:d0:b0:7b:35:7b:dd:cf:f1:88:d1:
                    88:7c:89:42:e0:56:32:17:42:cb:90:eb:61:6b:21:
                    c5:98:43:90:d1:41:3a:ac:f3:36:53:43:8d:a7:ca:
                    c2:9e:6c:73:65:c6:8b:f8:10:cb:c2:e6:0d:b8:30:
                    c3:a7:dc:79:cc:04:15:89:fc:ac:fc:1c:49:0e:59:
                    89:a1:65:3e:de:11:fa:18:96:41:20:9c:60:61:15:
                    1b:48:43:3d:91:8e:38:79:db:06:15:3f:58:9b:6c:
                    c5:87:fe:dd:72:03:18:2b:15:68:93:a1:3c:8d:43:
                    eb:79:f2:36:10:80:94:03:3f:5c:c2:8c:82:e5:df:
                    9a:c7
                Exponent: 65537 (0x10001)
        X509v3 extensions:
            X509v3 Basic Constraints: 
                CA:FALSE
            Netscape Comment: 
                OpenSSL Generated Certificate
            X509v3 Subject Key Identifier: 
                6B:FD:F0:68:43:C1:42:AF:4A:F4:AA:34:B3:09:C5:EB:D1:3B:36:80
            X509v3 Authority Key Identifier: 
                DirName:/C=US/ST=CA/L=Sunnyvale/O=Real Time Innovations/CN=RTI CA/emailAddress=secure@rti.com
                serial:E5:C6:DB:24:55:C7:80:F1

    Signature Algorithm: sha256WithRSAEncryption
         d9:be:1a:97:93:0a:00:bc:08:bb:ca:68:d9:bb:6c:e6:fe:a3:
         af:96:1f:0e:36:b1:de:d0:b7:ee:97:85:8a:51:68:5f:b4:36:
         da:07:09:f2:cc:70:1a:33:13:97:da:f3:88:08:e6:62:34:56:
         52:4a:e5:62:df:0b:9f:bc:f9:aa:63:c1:f3:51:1d:8c:a4:b3:
         1a:c5:41:15:d0:32:7c:5a:96:99:6e:96:5c:87:e2:f1:ae:83:
         3f:ad:3b:a3:6c:8a:46:be:42:8f:1b:c8:14:e0:f8:a1:05:b3:
         e2:0b:df:dc:07:ef:61:14:a9:9a:9d:b7:63:2b:3b:83:3a:fa:
         46:9b:98:8b:9a:d0:26:f9:b9:fb:e3:fa:3e:de:97:91:73:c4:
         be:fa:ba:61:b3:b9:d7:c6:8f:c0:5e:51:45:6b:32:91:03:af:
         99:2e:41:83:8b:34:c0:83:37:5c:ad:13:25:94:2d:aa:3a:10:
         6c:ca:89:be:ef:59:e0:82:15:a9:6f:ee:c1:b5:33:ba:a9:3f:
         30:76:a8:89:f2:9f:5d:f3:eb:df:2f:e9:77:97:21:b2:e5:80:
         0f:46:8f:38:f6:6b:4e:c7:f0:b7:5d:14:36:75:f2:a0:39:ca:
         7b:24:b2:bc:4f:cc:25:2f:f0:e8:37:eb:fb:ec:b4:33:51:8a:
         20:32:6d:62
-----BEGIN CERTIFICATE-----
MIIEXTCCA0WgAwIBAgIBAjANBgkqhkiG9w0BAQsFADB+MQswCQYDVQQGEwJVUzEL
MAkGA1UECAwCQ0ExEjAQBgNVBAcMCVN1bm55dmFsZTEeMBwGA1UECgwVUmVhbCBU
aW1lIElubm92YXRpb25zMQ8wDQYDVQQDDAZSVEkgQ0ExHTAbBgkqhkiG9w0BCQEW
DnNlY3VyZUBydGkuY29tMB4XDTE5MDMwOTAwNDgzMFoXDTI5MDMwNjAwNDgzMFow
aTELMAkGA1UEBhMCVVMxCzAJBgNVBAgMAkNBMR4wHAYDVQQKDBVSZWFsIFRpbWUg
SW5ub3ZhdGlvbnMxETAPBgNVBAMMCHBlcmZ0ZXN0MRowGAYJKoZIhvcNAQkBFgtz
dWJAcnRpLmNvbTCCASIwDQYJKoZIhvcNAQEBBQADggEPADCCAQoCggEBAKkZIAE1
pHhCo+w6gmpyH+h52IvMlaBeXyuiFcuIGhRX50NLo8XRrItnZzFKJPRoRJLBVMMA
u11zWKaEYdG9zFgZU0V6GQCdSWxXz0mD65Qv9bQN8lyna7x3r0YzB13K1uUjP4hI
xtlyG+L1U2p6U7dJnOYxBQ4A8AZ8bgzQsHs1e93P8YjRiHyJQuBWMhdCy5DrYWsh
xZhDkNFBOqzzNlNDjafKwp5sc2XGi/gQy8LmDbgww6fcecwEFYn8rPwcSQ5ZiaFl
Pt4R+hiWQSCcYGEVG0hDPZGOOHnbBhU/WJtsxYf+3XIDGCsVaJOhPI1D63nyNhCA
lAM/XMKMguXfmscCAwEAAaOB+jCB9zAJBgNVHRMEAjAAMCwGCWCGSAGG+EIBDQQf
Fh1PcGVuU1NMIEdlbmVyYXRlZCBDZXJ0aWZpY2F0ZTAdBgNVHQ4EFgQUa/3waEPB
Qq9K9Ko0swnF69E7NoAwgZwGA1UdIwSBlDCBkaGBg6SBgDB+MQswCQYDVQQGEwJV
UzELMAkGA1UECAwCQ0ExEjAQBgNVBAcMCVN1bm55dmFsZTEeMBwGA1UECgwVUmVh
bCBUaW1lIElubm92YXRpb25zMQ8wDQYDVQQDDAZSVEkgQ0ExHTAbBgkqhkiG9w0B
CQEWDnNlY3VyZUBydGkuY29tggkA5cbbJFXHgPEwDQYJKoZIhvcNAQELBQADggEB
ANm+GpeTCgC8CLvKaNm7bOb+o6+WHw42sd7Qt+6XhYpRaF+0NtoHCfLMcBozE5fa
84gI5mI0VlJK5WLfC5+8+apjwfNRHYyksxrFQRXQMnxalplullyH4vGugz+tO6Ns
ika+Qo8byBTg+KEFs+IL39wH72EUqZqdt2MrO4M6+kabmIua0Cb5ufvj+j7el5Fz
xL76umGzudfGj8BeUUVrMpEDr5kuQYOLNMCDN1ytEyWULao6EGzKib7vWeCCFalv
7sG1M7qpPzB2qInyn13z698v6XeXIbLlgA9Gjzj2a07H8LddFDZ18qA5ynsksrxP
zCUv8Og36/vstDNRiiAybWI=
-----END CERTIFICATE-----
