Certificate:
    Data:
        Version: 3 (0x2)
        Serial Number: 2 (0x2)
    Signature Algorithm: sha256WithRSAEncryption
        Issuer: C=US, ST=CA, L=Sunnyvale, O=Real Time Innovations, CN=RTI CA/emailAddress=secure@rti.com
        Validity
            Not Before: Sep 19 10:18:40 2016 GMT
            Not After : Sep 19 10:18:40 2017 GMT
        Subject: C=US, ST=CA, O=Real Time Innovations, CN=perftest/emailAddress=sub@rti.com
        Subject Public Key Info:
            Public Key Algorithm: rsaEncryption
                Public-Key: (2048 bit)
                Modulus:
                    00:f7:ae:e4:6f:08:c7:7b:d5:35:cf:3f:f4:b9:80:
                    47:8a:81:0b:b9:2c:b7:54:d4:fa:2b:fb:3b:3f:35:
                    07:e9:da:a6:d0:e5:b4:1a:02:ba:45:ae:9a:de:77:
                    ad:85:48:fb:db:af:51:c0:d7:4f:58:48:76:3e:b7:
                    45:0a:80:97:58:34:c8:f3:30:4e:33:7a:ba:64:91:
                    d3:33:bf:68:35:87:77:90:c5:bd:b3:2d:bf:fe:72:
                    86:70:75:63:0e:dc:02:ec:4e:b0:09:cd:51:c4:01:
                    84:b1:55:0a:07:2d:cc:9b:3d:cf:e0:dc:2d:f0:d9:
                    c7:85:40:7e:0b:a0:1b:bd:5c:f3:ca:b0:f3:05:4c:
                    8c:92:30:8a:40:49:af:7d:b4:b0:79:94:bd:27:b9:
                    e3:c4:e1:f0:06:04:10:42:92:a9:94:b3:d0:87:9a:
                    b9:67:2d:50:a7:d2:ed:f9:86:00:b7:5b:15:70:18:
                    53:c9:77:a0:f1:4b:4d:3e:5e:b9:f2:53:77:98:d8:
                    84:48:9f:0d:92:a6:5f:63:45:67:d1:ff:cf:27:35:
                    b1:2f:ad:bb:60:cc:8d:38:3c:a4:40:88:b2:c9:3c:
                    8f:6e:d0:66:4f:94:58:a4:3d:84:73:5d:ad:0b:4e:
                    13:99:70:a5:0f:c0:bb:f6:47:f7:84:28:a7:16:62:
                    9e:69
                Exponent: 65537 (0x10001)
        X509v3 extensions:
            X509v3 Basic Constraints: 
                CA:FALSE
            Netscape Comment: 
                OpenSSL Generated Certificate
            X509v3 Subject Key Identifier: 
                60:90:B0:42:4A:00:42:35:04:BC:90:38:0D:BD:DE:FE:FD:E1:7E:05
            X509v3 Authority Key Identifier: 
                DirName:/C=US/ST=CA/L=Sunnyvale/O=Real Time Innovations/CN=RTI CA/emailAddress=secure@rti.com
                serial:FF:FE:15:52:C9:FF:BD:FD

    Signature Algorithm: sha256WithRSAEncryption
         5a:8f:d5:a8:b4:e5:c6:7d:37:6e:b5:a7:66:9e:fc:f6:42:eb:
         b2:e7:a8:7f:73:14:cf:a3:d0:c6:1e:00:20:a6:16:b6:44:ab:
         e8:12:f9:63:91:23:40:44:02:eb:bc:9a:ac:d8:e5:c4:27:f0:
         39:08:83:d4:eb:92:cc:16:1f:cc:78:48:4e:9c:36:70:0b:ad:
         8f:75:93:63:52:50:59:d4:9f:9c:04:f1:78:ae:81:e5:4d:8f:
         62:b3:a9:55:9a:1f:eb:35:ff:28:63:4b:d8:4f:bf:5b:90:1e:
         9c:9c:28:0e:53:f3:4a:40:82:96:65:ef:12:3e:b2:26:31:75:
         e2:53:e6:16:ec:48:88:18:ba:6c:20:12:48:35:a1:c7:2a:e9:
         68:75:79:2f:90:ba:ea:be:20:b3:33:a3:64:02:f7:10:d2:1c:
         73:03:65:ee:e3:4e:f5:7a:9d:72:7f:f3:5b:cf:12:d0:c0:ae:
         27:f4:3d:7a:32:eb:6c:a4:c2:d9:ed:58:4c:d9:ad:07:2e:98:
         4a:30:9e:9f:05:d7:c6:d8:68:74:8e:26:15:bf:79:99:e8:90:
         60:1b:4d:3f:77:36:24:9b:88:2b:de:68:2a:72:a4:aa:df:b3:
         c9:b1:b1:58:98:ec:41:9a:68:11:64:c9:6d:fd:46:d6:a1:92:
         f0:31:fc:75
-----BEGIN CERTIFICATE-----
MIIEXTCCA0WgAwIBAgIBAjANBgkqhkiG9w0BAQsFADB+MQswCQYDVQQGEwJVUzEL
MAkGA1UECAwCQ0ExEjAQBgNVBAcMCVN1bm55dmFsZTEeMBwGA1UECgwVUmVhbCBU
aW1lIElubm92YXRpb25zMQ8wDQYDVQQDDAZSVEkgQ0ExHTAbBgkqhkiG9w0BCQEW
DnNlY3VyZUBydGkuY29tMB4XDTE2MDkxOTEwMTg0MFoXDTE3MDkxOTEwMTg0MFow
aTELMAkGA1UEBhMCVVMxCzAJBgNVBAgMAkNBMR4wHAYDVQQKDBVSZWFsIFRpbWUg
SW5ub3ZhdGlvbnMxETAPBgNVBAMMCHBlcmZ0ZXN0MRowGAYJKoZIhvcNAQkBFgtz
dWJAcnRpLmNvbTCCASIwDQYJKoZIhvcNAQEBBQADggEPADCCAQoCggEBAPeu5G8I
x3vVNc8/9LmAR4qBC7kst1TU+iv7Oz81B+naptDltBoCukWumt53rYVI+9uvUcDX
T1hIdj63RQqAl1g0yPMwTjN6umSR0zO/aDWHd5DFvbMtv/5yhnB1Yw7cAuxOsAnN
UcQBhLFVCgctzJs9z+DcLfDZx4VAfgugG71c88qw8wVMjJIwikBJr320sHmUvSe5
48Th8AYEEEKSqZSz0IeauWctUKfS7fmGALdbFXAYU8l3oPFLTT5eufJTd5jYhEif
DZKmX2NFZ9H/zyc1sS+tu2DMjTg8pECIssk8j27QZk+UWKQ9hHNdrQtOE5lwpQ/A
u/ZH94QopxZinmkCAwEAAaOB+jCB9zAJBgNVHRMEAjAAMCwGCWCGSAGG+EIBDQQf
Fh1PcGVuU1NMIEdlbmVyYXRlZCBDZXJ0aWZpY2F0ZTAdBgNVHQ4EFgQUYJCwQkoA
QjUEvJA4Db3e/v3hfgUwgZwGA1UdIwSBlDCBkaGBg6SBgDB+MQswCQYDVQQGEwJV
UzELMAkGA1UECAwCQ0ExEjAQBgNVBAcMCVN1bm55dmFsZTEeMBwGA1UECgwVUmVh
bCBUaW1lIElubm92YXRpb25zMQ8wDQYDVQQDDAZSVEkgQ0ExHTAbBgkqhkiG9w0B
CQEWDnNlY3VyZUBydGkuY29tggkA//4VUsn/vf0wDQYJKoZIhvcNAQELBQADggEB
AFqP1ai05cZ9N261p2ae/PZC67LnqH9zFM+j0MYeACCmFrZEq+gS+WORI0BEAuu8
mqzY5cQn8DkIg9TrkswWH8x4SE6cNnALrY91k2NSUFnUn5wE8XiugeVNj2KzqVWa
H+s1/yhjS9hPv1uQHpycKA5T80pAgpZl7xI+siYxdeJT5hbsSIgYumwgEkg1occq
6Wh1eS+Quuq+ILMzo2QC9xDSHHMDZe7jTvV6nXJ/81vPEtDArif0PXoy62ykwtnt
WEzZrQcumEownp8F18bYaHSOJhW/eZnokGAbTT93NiSbiCveaCpypKrfs8mxsViY
7EGaaBFkyW39RtahkvAx/HU=
-----END CERTIFICATE-----
