Certificate:
    Data:
        Version: 3 (0x2)
        Serial Number: 2 (0x2)
    Signature Algorithm: sha256WithRSAEncryption
        Issuer: C=US, ST=CA, L=Sunnyvale, O=Real Time Innovations, CN=RTI CA/emailAddress=secure@rti.com
        Validity
            Not Before: Mar  8 12:40:07 2017 GMT
            Not After : Mar  8 12:40:07 2018 GMT
        Subject: C=US, ST=CA, O=Real Time Innovations, CN=perftest/emailAddress=sub@rti.com
        Subject Public Key Info:
            Public Key Algorithm: rsaEncryption
                Public-Key: (2048 bit)
                Modulus:
                    00:bb:29:f7:6c:a4:4b:53:38:48:41:b4:1e:7a:ea:
                    b8:ea:c6:a8:ee:e9:fb:29:6a:64:aa:a5:8f:f3:95:
                    ba:cd:17:96:67:f7:cb:38:1d:66:04:52:ac:73:73:
                    5e:fd:42:65:35:71:b2:b7:f9:f1:24:32:c3:d9:04:
                    73:18:62:53:29:d9:b6:3d:62:d4:d2:bd:56:a0:32:
                    9d:60:45:65:5d:cf:2e:c0:9b:2f:5c:d4:08:bf:24:
                    f9:7d:5f:cd:b2:a4:a5:65:43:48:81:01:ad:c7:b3:
                    69:b1:5d:fb:8f:d8:9b:ac:37:af:87:d6:0d:82:d4:
                    38:21:ef:f7:8e:1f:60:ba:ad:79:34:c8:a6:a6:7b:
                    fe:1d:2c:e9:5e:fa:5d:0f:9c:24:29:29:62:37:78:
                    8a:b3:4e:30:90:89:5f:c9:62:ec:5a:2d:e7:86:3b:
                    07:d3:81:50:2d:24:da:5a:4b:e3:14:4c:12:a9:7f:
                    17:7a:7a:be:3b:4d:ad:14:70:78:80:93:57:78:72:
                    07:51:5f:c6:6d:6a:67:9e:96:2e:d8:37:ef:32:ed:
                    63:4d:a1:16:8c:bb:1f:68:87:f0:07:09:30:9e:79:
                    70:31:45:1e:69:1e:75:99:e8:77:6f:4c:d8:6e:11:
                    cf:f9:e9:6a:fd:9f:26:13:66:fe:b0:9d:3d:b2:4c:
                    b7:61
                Exponent: 65537 (0x10001)
        X509v3 extensions:
            X509v3 Basic Constraints: 
                CA:FALSE
            Netscape Comment: 
                OpenSSL Generated Certificate
            X509v3 Subject Key Identifier: 
                CC:AA:3B:66:35:EA:19:8F:60:2B:F0:AF:FD:CE:BE:A7:0B:C8:55:35
            X509v3 Authority Key Identifier: 
                DirName:/C=US/ST=CA/L=Sunnyvale/O=Real Time Innovations/CN=RTI CA/emailAddress=secure@rti.com
                serial:9A:C6:D3:C0:7A:55:D0:6C

    Signature Algorithm: sha256WithRSAEncryption
         19:02:d9:69:47:72:66:10:b4:4a:48:d1:73:87:95:7f:97:86:
         77:de:42:e5:a5:12:c9:19:f1:17:98:c6:d6:e4:8a:8e:76:5d:
         1c:bc:42:08:2c:92:15:e9:cf:5a:e6:a1:aa:e1:15:55:ea:cb:
         f6:39:16:02:29:d3:58:13:44:c4:13:c2:7f:3c:dd:d9:25:8c:
         2c:de:69:f2:cd:25:42:31:4a:4d:2b:5a:a3:62:80:1d:21:00:
         30:67:3c:ee:83:3e:c5:60:11:2c:e9:18:6f:76:a0:81:c6:40:
         8d:4a:2f:6e:98:0b:46:ce:a5:88:7b:0f:10:7f:6b:9f:44:18:
         dc:5a:50:d8:63:f5:e5:2b:f0:cb:e7:03:37:e6:f1:e7:f4:37:
         1d:42:f9:74:2a:49:94:21:9b:91:67:02:f2:54:e8:7b:df:dc:
         80:e9:ed:fa:11:c3:5f:dd:25:0f:e8:3a:86:f9:b7:b3:4a:7c:
         1f:01:ea:bf:73:fc:a4:f9:77:cc:f9:b5:7b:e4:7f:c2:26:2c:
         35:20:a5:ba:57:24:97:34:a9:4b:d4:63:a8:4c:27:58:6d:76:
         ef:b5:fa:aa:63:39:90:f0:21:14:a4:5e:3c:b0:bd:3b:41:b9:
         60:69:35:25:0f:5c:0c:fa:5d:1f:40:89:e3:08:fa:31:74:a7:
         73:26:13:ca
-----BEGIN CERTIFICATE-----
MIIEXTCCA0WgAwIBAgIBAjANBgkqhkiG9w0BAQsFADB+MQswCQYDVQQGEwJVUzEL
MAkGA1UECAwCQ0ExEjAQBgNVBAcMCVN1bm55dmFsZTEeMBwGA1UECgwVUmVhbCBU
aW1lIElubm92YXRpb25zMQ8wDQYDVQQDDAZSVEkgQ0ExHTAbBgkqhkiG9w0BCQEW
DnNlY3VyZUBydGkuY29tMB4XDTE3MDMwODEyNDAwN1oXDTE4MDMwODEyNDAwN1ow
aTELMAkGA1UEBhMCVVMxCzAJBgNVBAgMAkNBMR4wHAYDVQQKDBVSZWFsIFRpbWUg
SW5ub3ZhdGlvbnMxETAPBgNVBAMMCHBlcmZ0ZXN0MRowGAYJKoZIhvcNAQkBFgtz
dWJAcnRpLmNvbTCCASIwDQYJKoZIhvcNAQEBBQADggEPADCCAQoCggEBALsp92yk
S1M4SEG0HnrquOrGqO7p+ylqZKqlj/OVus0Xlmf3yzgdZgRSrHNzXv1CZTVxsrf5
8SQyw9kEcxhiUynZtj1i1NK9VqAynWBFZV3PLsCbL1zUCL8k+X1fzbKkpWVDSIEB
rcezabFd+4/Ym6w3r4fWDYLUOCHv944fYLqteTTIpqZ7/h0s6V76XQ+cJCkpYjd4
irNOMJCJX8li7Fot54Y7B9OBUC0k2lpL4xRMEql/F3p6vjtNrRRweICTV3hyB1Ff
xm1qZ56WLtg37zLtY02hFoy7H2iH8AcJMJ55cDFFHmkedZnod29M2G4Rz/npav2f
JhNm/rCdPbJMt2ECAwEAAaOB+jCB9zAJBgNVHRMEAjAAMCwGCWCGSAGG+EIBDQQf
Fh1PcGVuU1NMIEdlbmVyYXRlZCBDZXJ0aWZpY2F0ZTAdBgNVHQ4EFgQUzKo7ZjXq
GY9gK/Cv/c6+pwvIVTUwgZwGA1UdIwSBlDCBkaGBg6SBgDB+MQswCQYDVQQGEwJV
UzELMAkGA1UECAwCQ0ExEjAQBgNVBAcMCVN1bm55dmFsZTEeMBwGA1UECgwVUmVh
bCBUaW1lIElubm92YXRpb25zMQ8wDQYDVQQDDAZSVEkgQ0ExHTAbBgkqhkiG9w0B
CQEWDnNlY3VyZUBydGkuY29tggkAmsbTwHpV0GwwDQYJKoZIhvcNAQELBQADggEB
ABkC2WlHcmYQtEpI0XOHlX+XhnfeQuWlEskZ8ReYxtbkio52XRy8QggskhXpz1rm
oarhFVXqy/Y5FgIp01gTRMQTwn883dkljCzeafLNJUIxSk0rWqNigB0hADBnPO6D
PsVgESzpGG92oIHGQI1KL26YC0bOpYh7DxB/a59EGNxaUNhj9eUr8MvnAzfm8ef0
Nx1C+XQqSZQhm5FnAvJU6Hvf3IDp7foRw1/dJQ/oOob5t7NKfB8B6r9z/KT5d8z5
tXvkf8ImLDUgpbpXJJc0qUvUY6hMJ1htdu+1+qpjOZDwIRSkXjywvTtBuWBpNSUP
XAz6XR9AieMI+jF0p3MmE8o=
-----END CERTIFICATE-----
