Certificate:
    Data:
        Version: 3 (0x2)
        Serial Number: 2 (0x2)
    Signature Algorithm: sha256WithRSAEncryption
        Issuer: C=US, ST=CA, L=Sunnyvale, O=Real Time Innovations, CN=RTI CA/emailAddress=secure@rti.com
        Validity
            Not Before: Feb 25 19:20:50 2019 GMT
            Not After : Feb 22 19:20:50 2029 GMT
        Subject: C=US, ST=CA, O=Real Time Innovations, CN=perftest/emailAddress=sub@rti.com
        Subject Public Key Info:
            Public Key Algorithm: rsaEncryption
                Public-Key: (2048 bit)
                Modulus:
                    00:b6:a9:b8:51:64:1b:00:e7:19:2d:5b:63:1d:73:
                    75:b7:66:2f:9a:31:f3:39:35:b4:89:9d:ea:9f:df:
                    40:6c:db:ad:3c:ea:33:ef:48:ae:f1:1f:3e:c5:7e:
                    9c:21:22:aa:43:4b:5e:0e:d0:05:d2:e5:d3:a4:7f:
                    ac:f6:d5:90:f3:cf:9d:e6:ac:49:40:b7:57:59:74:
                    d3:84:f4:33:2f:95:c1:55:a5:a8:75:3f:0c:20:2b:
                    d5:0a:70:95:85:ae:94:7c:02:a1:61:10:31:03:45:
                    ef:d5:94:a0:c1:59:77:b7:71:c2:22:a2:78:b8:4b:
                    11:2c:75:7b:86:94:07:91:44:bf:fe:ee:29:c5:b1:
                    43:1e:88:04:32:63:4a:e7:f9:e2:18:66:43:45:d5:
                    9a:6f:34:47:a6:d8:cc:33:11:ce:4a:75:04:33:4b:
                    52:10:39:51:b2:77:33:68:79:8d:90:16:46:c5:b2:
                    6c:62:16:76:c9:38:ff:3d:69:43:f7:90:2b:22:c5:
                    ee:87:2b:fb:f7:2b:c9:99:5c:4a:48:2f:c3:1a:f7:
                    20:47:f2:22:66:fe:6b:92:5e:7a:5a:e7:17:59:e3:
                    83:fb:f6:00:09:a2:74:64:9b:46:90:7a:ed:52:6f:
                    f9:72:ec:2d:7b:fc:18:05:a4:20:b0:23:ee:2e:dd:
                    7a:99
                Exponent: 65537 (0x10001)
        X509v3 extensions:
            X509v3 Basic Constraints: 
                CA:FALSE
            Netscape Comment: 
                OpenSSL Generated Certificate
            X509v3 Subject Key Identifier: 
                4B:40:65:47:4D:74:D7:AE:7E:1E:65:B5:F0:F2:43:41:B0:17:E0:51
            X509v3 Authority Key Identifier: 
                DirName:/C=US/ST=CA/L=Sunnyvale/O=Real Time Innovations/CN=RTI CA/emailAddress=secure@rti.com
                serial:9C:DF:4D:80:F7:6F:74:84

    Signature Algorithm: sha256WithRSAEncryption
         12:24:71:7a:3b:ee:67:8a:43:a6:43:68:6d:75:fc:89:8b:37:
         24:3b:9c:ca:db:27:00:bb:2a:6d:2a:dc:0f:83:61:8c:52:37:
         b3:57:bc:c7:2a:86:6a:88:e4:b6:0a:a7:ef:5f:fe:32:ee:76:
         ac:fb:a7:a7:54:24:ec:6e:12:0f:d9:9d:36:60:2e:f8:d7:66:
         e0:66:7a:05:d7:82:47:65:3e:5f:0e:36:28:bd:0f:fb:58:d3:
         30:e0:0a:b0:f3:82:b3:1c:dc:98:b9:ca:9d:37:01:c5:4f:96:
         12:de:c5:2f:c5:70:83:ca:4f:aa:1c:e0:80:6b:0e:d1:ec:9c:
         3b:26:05:5a:e2:2a:3b:ee:d2:c7:b5:c8:d1:a2:2e:43:c4:41:
         42:39:7d:c9:1f:1b:06:12:c7:e1:c6:12:e3:3f:0d:27:83:ed:
         bc:27:87:42:f5:9d:f0:ac:62:35:03:c4:39:8b:b3:01:c3:b8:
         ac:ab:29:81:99:69:8b:dc:61:c9:a7:9a:da:f3:67:53:6a:e8:
         dd:f4:8c:09:56:05:44:5e:19:5b:d2:d4:c8:52:df:97:09:d2:
         9f:be:e9:47:24:d5:5b:e7:53:b3:59:03:a5:1d:44:cd:4e:b7:
         b7:81:f4:37:2b:0c:2f:3e:30:3f:2f:12:bb:fd:15:b6:42:2c:
         68:22:57:cc
-----BEGIN CERTIFICATE-----
MIIEXTCCA0WgAwIBAgIBAjANBgkqhkiG9w0BAQsFADB+MQswCQYDVQQGEwJVUzEL
MAkGA1UECAwCQ0ExEjAQBgNVBAcMCVN1bm55dmFsZTEeMBwGA1UECgwVUmVhbCBU
aW1lIElubm92YXRpb25zMQ8wDQYDVQQDDAZSVEkgQ0ExHTAbBgkqhkiG9w0BCQEW
DnNlY3VyZUBydGkuY29tMB4XDTE5MDIyNTE5MjA1MFoXDTI5MDIyMjE5MjA1MFow
aTELMAkGA1UEBhMCVVMxCzAJBgNVBAgMAkNBMR4wHAYDVQQKDBVSZWFsIFRpbWUg
SW5ub3ZhdGlvbnMxETAPBgNVBAMMCHBlcmZ0ZXN0MRowGAYJKoZIhvcNAQkBFgtz
dWJAcnRpLmNvbTCCASIwDQYJKoZIhvcNAQEBBQADggEPADCCAQoCggEBALapuFFk
GwDnGS1bYx1zdbdmL5ox8zk1tImd6p/fQGzbrTzqM+9IrvEfPsV+nCEiqkNLXg7Q
BdLl06R/rPbVkPPPneasSUC3V1l004T0My+VwVWlqHU/DCAr1QpwlYWulHwCoWEQ
MQNF79WUoMFZd7dxwiKieLhLESx1e4aUB5FEv/7uKcWxQx6IBDJjSuf54hhmQ0XV
mm80R6bYzDMRzkp1BDNLUhA5UbJ3M2h5jZAWRsWybGIWdsk4/z1pQ/eQKyLF7ocr
+/cryZlcSkgvwxr3IEfyImb+a5JeelrnF1njg/v2AAmidGSbRpB67VJv+XLsLXv8
GAWkILAj7i7depkCAwEAAaOB+jCB9zAJBgNVHRMEAjAAMCwGCWCGSAGG+EIBDQQf
Fh1PcGVuU1NMIEdlbmVyYXRlZCBDZXJ0aWZpY2F0ZTAdBgNVHQ4EFgQUS0BlR010
165+HmW18PJDQbAX4FEwgZwGA1UdIwSBlDCBkaGBg6SBgDB+MQswCQYDVQQGEwJV
UzELMAkGA1UECAwCQ0ExEjAQBgNVBAcMCVN1bm55dmFsZTEeMBwGA1UECgwVUmVh
bCBUaW1lIElubm92YXRpb25zMQ8wDQYDVQQDDAZSVEkgQ0ExHTAbBgkqhkiG9w0B
CQEWDnNlY3VyZUBydGkuY29tggkAnN9NgPdvdIQwDQYJKoZIhvcNAQELBQADggEB
ABIkcXo77meKQ6ZDaG11/ImLNyQ7nMrbJwC7Km0q3A+DYYxSN7NXvMcqhmqI5LYK
p+9f/jLudqz7p6dUJOxuEg/ZnTZgLvjXZuBmegXXgkdlPl8ONii9D/tY0zDgCrDz
grMc3Ji5yp03AcVPlhLexS/FcIPKT6oc4IBrDtHsnDsmBVriKjvu0se1yNGiLkPE
QUI5fckfGwYSx+HGEuM/DSeD7bwnh0L1nfCsYjUDxDmLswHDuKyrKYGZaYvcYcmn
mtrzZ1Nq6N30jAlWBUReGVvS1MhS35cJ0p++6Uck1VvnU7NZA6UdRM1Ot7eB9Dcr
DC8+MD8vErv9FbZCLGgiV8w=
-----END CERTIFICATE-----
