Certificate:
    Data:
        Version: 3 (0x2)
        Serial Number: 2 (0x2)
    Signature Algorithm: sha256WithRSAEncryption
        Issuer: C=US, ST=CA, L=Sunnyvale, O=Real Time Innovations, CN=RTI CA/emailAddress=secure@rti.com
        Validity
            Not Before: Apr  2 12:53:08 2018 GMT
            Not After : Mar 30 12:53:08 2028 GMT
        Subject: C=US, ST=CA, O=Real Time Innovations, CN=perftest/emailAddress=sub@rti.com
        Subject Public Key Info:
            Public Key Algorithm: rsaEncryption
                Public-Key: (2048 bit)
                Modulus:
                    00:d6:0f:90:c7:3d:6e:28:d2:40:b5:26:cd:41:5e:
                    52:5b:10:6a:3a:2d:a8:1b:c8:3d:66:ad:01:d0:5b:
                    a2:3f:f8:80:46:38:bd:4c:ce:e2:cd:fb:45:e8:0c:
                    d3:16:5d:fb:ff:16:0f:a5:11:20:81:64:b8:fe:fa:
                    8e:23:62:6e:56:9c:41:ef:b8:fc:56:73:ee:72:7c:
                    bb:cf:83:76:6a:be:cb:50:b1:9c:aa:6d:be:9e:0c:
                    ef:be:19:9c:5b:a5:3a:d1:2e:2b:52:e1:16:7f:2c:
                    ee:ef:9f:ae:9b:b6:f3:49:d9:0f:22:3f:c3:6f:97:
                    6b:69:4d:40:17:fe:d9:0d:ae:01:70:2e:45:4c:e1:
                    c1:b6:09:89:f9:48:dc:05:1e:e2:f1:b0:ad:3d:55:
                    01:ad:04:7b:6f:12:d5:fe:cd:59:8c:99:68:0a:b3:
                    c8:d0:27:4e:5c:19:67:5d:f6:5b:b4:a2:96:41:06:
                    88:d5:61:cb:a1:88:77:a3:58:33:05:e5:83:3c:51:
                    1f:17:11:88:48:2b:f3:58:1d:1d:78:ea:60:ae:7e:
                    e3:30:ec:e9:cc:88:81:6f:58:f5:02:07:dd:fd:f5:
                    30:01:d9:46:68:90:d3:57:b3:c4:f6:1c:24:0e:ff:
                    f5:12:f0:69:6a:b0:01:62:ef:f8:2a:e6:19:93:64:
                    d0:2b
                Exponent: 65537 (0x10001)
        X509v3 extensions:
            X509v3 Basic Constraints: 
                CA:FALSE
            Netscape Comment: 
                OpenSSL Generated Certificate
            X509v3 Subject Key Identifier: 
                7B:16:43:8E:E7:7F:8D:D8:D5:D1:54:5F:48:9E:FF:7A:8B:0F:18:3A
            X509v3 Authority Key Identifier: 
                DirName:/C=US/ST=CA/L=Sunnyvale/O=Real Time Innovations/CN=RTI CA/emailAddress=secure@rti.com
                serial:84:36:91:4C:60:78:3D:8F

    Signature Algorithm: sha256WithRSAEncryption
         30:2b:4a:bf:7f:56:48:bb:80:30:7a:f6:f3:d8:30:01:4b:72:
         08:ef:f6:88:34:83:eb:20:fe:2a:07:40:34:4e:c4:31:6f:47:
         4c:cf:de:d7:f0:7b:fb:b7:a3:dd:34:d6:ba:5d:0b:0a:30:11:
         0f:64:19:fd:3b:e2:57:42:c3:fc:86:48:8c:4a:16:a4:7a:f6:
         e2:28:a5:2c:7d:4b:6b:fc:62:b0:7e:90:f5:1c:26:be:0f:ab:
         f7:5a:ab:7b:b6:65:c5:6f:bf:44:f8:7a:04:cb:1d:0f:04:7c:
         00:ab:07:42:d7:5d:07:82:bf:eb:d7:1f:1b:8a:cd:b0:68:56:
         25:29:b6:4c:3e:f8:bb:5d:47:1a:7e:03:03:e5:2e:4a:4f:78:
         44:39:58:59:e8:e4:bb:01:e0:6d:7c:2e:23:a9:8e:23:88:19:
         d6:1c:98:b7:df:e9:b9:33:48:82:c5:47:bb:f7:ad:fc:a4:67:
         84:9f:52:9a:8f:17:dc:63:21:cf:6d:0c:71:87:3b:4e:da:5f:
         c2:94:57:ec:07:1e:ef:d1:9c:a4:62:3f:0e:2f:59:e1:73:44:
         e8:f9:dc:b3:83:78:2b:7e:10:66:11:72:8b:00:f0:20:34:b2:
         f7:6c:70:b2:7f:0b:f1:2d:1e:d1:68:56:97:bd:fc:5e:08:ef:
         60:ec:49:ad
-----BEGIN CERTIFICATE-----
MIIEXTCCA0WgAwIBAgIBAjANBgkqhkiG9w0BAQsFADB+MQswCQYDVQQGEwJVUzEL
MAkGA1UECAwCQ0ExEjAQBgNVBAcMCVN1bm55dmFsZTEeMBwGA1UECgwVUmVhbCBU
aW1lIElubm92YXRpb25zMQ8wDQYDVQQDDAZSVEkgQ0ExHTAbBgkqhkiG9w0BCQEW
DnNlY3VyZUBydGkuY29tMB4XDTE4MDQwMjEyNTMwOFoXDTI4MDMzMDEyNTMwOFow
aTELMAkGA1UEBhMCVVMxCzAJBgNVBAgMAkNBMR4wHAYDVQQKDBVSZWFsIFRpbWUg
SW5ub3ZhdGlvbnMxETAPBgNVBAMMCHBlcmZ0ZXN0MRowGAYJKoZIhvcNAQkBFgtz
dWJAcnRpLmNvbTCCASIwDQYJKoZIhvcNAQEBBQADggEPADCCAQoCggEBANYPkMc9
bijSQLUmzUFeUlsQajotqBvIPWatAdBboj/4gEY4vUzO4s37RegM0xZd+/8WD6UR
IIFkuP76jiNiblacQe+4/FZz7nJ8u8+Ddmq+y1CxnKptvp4M774ZnFulOtEuK1Lh
Fn8s7u+frpu280nZDyI/w2+Xa2lNQBf+2Q2uAXAuRUzhwbYJiflI3AUe4vGwrT1V
Aa0Ee28S1f7NWYyZaAqzyNAnTlwZZ132W7SilkEGiNVhy6GId6NYMwXlgzxRHxcR
iEgr81gdHXjqYK5+4zDs6cyIgW9Y9QIH3f31MAHZRmiQ01ezxPYcJA7/9RLwaWqw
AWLv+CrmGZNk0CsCAwEAAaOB+jCB9zAJBgNVHRMEAjAAMCwGCWCGSAGG+EIBDQQf
Fh1PcGVuU1NMIEdlbmVyYXRlZCBDZXJ0aWZpY2F0ZTAdBgNVHQ4EFgQUexZDjud/
jdjV0VRfSJ7/eosPGDowgZwGA1UdIwSBlDCBkaGBg6SBgDB+MQswCQYDVQQGEwJV
UzELMAkGA1UECAwCQ0ExEjAQBgNVBAcMCVN1bm55dmFsZTEeMBwGA1UECgwVUmVh
bCBUaW1lIElubm92YXRpb25zMQ8wDQYDVQQDDAZSVEkgQ0ExHTAbBgkqhkiG9w0B
CQEWDnNlY3VyZUBydGkuY29tggkAhDaRTGB4PY8wDQYJKoZIhvcNAQELBQADggEB
ADArSr9/Vki7gDB69vPYMAFLcgjv9og0g+sg/ioHQDROxDFvR0zP3tfwe/u3o900
1rpdCwowEQ9kGf074ldCw/yGSIxKFqR69uIopSx9S2v8YrB+kPUcJr4Pq/daq3u2
ZcVvv0T4egTLHQ8EfACrB0LXXQeCv+vXHxuKzbBoViUptkw++LtdRxp+AwPlLkpP
eEQ5WFno5LsB4G18LiOpjiOIGdYcmLff6bkzSILFR7v3rfykZ4SfUpqPF9xjIc9t
DHGHO07aX8KUV+wHHu/RnKRiPw4vWeFzROj53LODeCt+EGYRcosA8CA0svdscLJ/
C/EtHtFoVpe9/F4I72DsSa0=
-----END CERTIFICATE-----
