Certificate:
    Data:
        Version: 3 (0x2)
        Serial Number: 2 (0x2)
    Signature Algorithm: sha256WithRSAEncryption
        Issuer: C=US, ST=CA, L=Sunnyvale, O=Real Time Innovations, CN=RTI CA/emailAddress=secure@rti.com
        Validity
            Not Before: Apr  2 13:04:45 2018 GMT
            Not After : Mar 30 13:04:45 2028 GMT
        Subject: C=US, ST=CA, O=Real Time Innovations, CN=perftest/emailAddress=sub@rti.com
        Subject Public Key Info:
            Public Key Algorithm: rsaEncryption
                Public-Key: (2048 bit)
                Modulus:
                    00:af:a1:05:43:13:76:92:98:c4:66:39:12:bf:7a:
                    5a:8a:ef:7c:82:ce:5d:c2:d1:01:1a:cd:6b:0b:c3:
                    30:a9:4f:8e:89:7a:58:08:19:e4:8b:0c:55:1c:66:
                    05:ec:fd:8d:ae:b8:47:2e:8f:0a:fe:e9:a7:fb:6e:
                    36:53:ac:e7:6c:aa:cf:e5:22:27:90:35:18:8b:f5:
                    a6:5a:ba:8e:76:66:b4:5c:01:6a:90:34:a4:75:f9:
                    f0:e0:52:0a:72:90:c6:31:07:4d:ce:3f:f8:2a:ab:
                    c1:bb:c0:a7:3b:82:3e:9c:59:1f:79:9d:e1:86:0d:
                    9e:c1:68:47:91:fa:7f:74:4b:97:70:f4:fa:53:40:
                    b7:ba:35:37:4a:ba:2b:c4:11:13:65:58:f5:6c:b4:
                    51:23:36:11:d3:2a:31:5d:ae:04:5c:ab:62:d2:14:
                    cc:7b:c6:75:c5:e2:01:44:d6:ca:83:a2:4b:4f:60:
                    ab:a5:59:99:d5:35:3b:db:b5:d9:e3:5c:1f:47:07:
                    7c:f6:1d:a3:f1:d6:15:54:d8:5f:3a:02:2e:b6:24:
                    5e:51:11:8f:43:e3:5d:2f:2e:b3:14:4a:62:1c:20:
                    0d:15:de:ba:8c:79:aa:16:df:86:a1:ef:dd:91:75:
                    c7:6c:e8:c1:07:ff:5d:06:07:f0:65:35:67:ef:c4:
                    11:c7
                Exponent: 65537 (0x10001)
        X509v3 extensions:
            X509v3 Basic Constraints: 
                CA:FALSE
            Netscape Comment: 
                OpenSSL Generated Certificate
            X509v3 Subject Key Identifier: 
                3B:63:54:BC:26:EC:97:9F:06:51:D1:39:50:DC:2E:AB:42:C2:0C:AB
            X509v3 Authority Key Identifier: 
                DirName:/C=US/ST=CA/L=Sunnyvale/O=Real Time Innovations/CN=RTI CA/emailAddress=secure@rti.com
                serial:9B:3A:22:8B:81:01:BE:F1

    Signature Algorithm: sha256WithRSAEncryption
         0a:fe:55:13:7c:3c:c0:f2:a4:40:33:86:50:13:6c:3a:7c:9d:
         4d:1d:e5:a3:4d:fb:87:05:ca:29:9c:b6:20:8c:44:2b:36:5c:
         d3:59:0d:c6:b3:de:0b:55:3b:a7:33:fb:45:af:62:a1:ea:1f:
         f2:85:1c:b2:7f:79:1a:9d:d5:a2:94:63:ba:a8:e6:41:28:8e:
         62:3c:4b:52:a8:93:a0:12:a6:14:b1:7b:2c:50:7e:d8:36:f6:
         1b:4c:bb:aa:e7:9f:fc:31:46:56:9e:65:0d:a0:54:33:d0:35:
         b8:e9:40:0b:72:77:3b:1a:bf:d4:9f:c5:fb:c6:46:38:97:d6:
         a1:81:89:cb:7f:1f:65:91:6e:ba:3c:3a:f3:29:ab:61:0d:17:
         1d:87:9c:c4:57:48:46:8b:c6:d4:34:c0:b3:a4:17:f0:06:7b:
         98:b7:4f:c6:91:06:db:3d:a6:43:22:bc:d9:5c:85:1e:0c:16:
         22:ac:e9:4f:f0:30:76:b4:fc:b5:17:c4:a0:ba:04:8f:9b:c8:
         cc:62:3b:34:fa:fa:09:f2:bd:7b:6e:1a:7a:d8:12:cf:ae:17:
         dd:27:0f:9e:69:c7:5c:73:1a:ce:db:f0:e2:71:af:80:9e:9d:
         2d:9c:6f:80:3c:e6:59:7a:e6:ec:fb:5e:d5:6e:79:dd:0b:c8:
         e4:02:69:0c
-----BEGIN CERTIFICATE-----
MIIEXTCCA0WgAwIBAgIBAjANBgkqhkiG9w0BAQsFADB+MQswCQYDVQQGEwJVUzEL
MAkGA1UECAwCQ0ExEjAQBgNVBAcMCVN1bm55dmFsZTEeMBwGA1UECgwVUmVhbCBU
aW1lIElubm92YXRpb25zMQ8wDQYDVQQDDAZSVEkgQ0ExHTAbBgkqhkiG9w0BCQEW
DnNlY3VyZUBydGkuY29tMB4XDTE4MDQwMjEzMDQ0NVoXDTI4MDMzMDEzMDQ0NVow
aTELMAkGA1UEBhMCVVMxCzAJBgNVBAgMAkNBMR4wHAYDVQQKDBVSZWFsIFRpbWUg
SW5ub3ZhdGlvbnMxETAPBgNVBAMMCHBlcmZ0ZXN0MRowGAYJKoZIhvcNAQkBFgtz
dWJAcnRpLmNvbTCCASIwDQYJKoZIhvcNAQEBBQADggEPADCCAQoCggEBAK+hBUMT
dpKYxGY5Er96WorvfILOXcLRARrNawvDMKlPjol6WAgZ5IsMVRxmBez9ja64Ry6P
Cv7pp/tuNlOs52yqz+UiJ5A1GIv1plq6jnZmtFwBapA0pHX58OBSCnKQxjEHTc4/
+CqrwbvApzuCPpxZH3md4YYNnsFoR5H6f3RLl3D0+lNAt7o1N0q6K8QRE2VY9Wy0
USM2EdMqMV2uBFyrYtIUzHvGdcXiAUTWyoOiS09gq6VZmdU1O9u12eNcH0cHfPYd
o/HWFVTYXzoCLrYkXlERj0PjXS8usxRKYhwgDRXeuox5qhbfhqHv3ZF1x2zowQf/
XQYH8GU1Z+/EEccCAwEAAaOB+jCB9zAJBgNVHRMEAjAAMCwGCWCGSAGG+EIBDQQf
Fh1PcGVuU1NMIEdlbmVyYXRlZCBDZXJ0aWZpY2F0ZTAdBgNVHQ4EFgQUO2NUvCbs
l58GUdE5UNwuq0LCDKswgZwGA1UdIwSBlDCBkaGBg6SBgDB+MQswCQYDVQQGEwJV
UzELMAkGA1UECAwCQ0ExEjAQBgNVBAcMCVN1bm55dmFsZTEeMBwGA1UECgwVUmVh
bCBUaW1lIElubm92YXRpb25zMQ8wDQYDVQQDDAZSVEkgQ0ExHTAbBgkqhkiG9w0B
CQEWDnNlY3VyZUBydGkuY29tggkAmzoii4EBvvEwDQYJKoZIhvcNAQELBQADggEB
AAr+VRN8PMDypEAzhlATbDp8nU0d5aNN+4cFyimctiCMRCs2XNNZDcaz3gtVO6cz
+0WvYqHqH/KFHLJ/eRqd1aKUY7qo5kEojmI8S1Kok6ASphSxeyxQftg29htMu6rn
n/wxRlaeZQ2gVDPQNbjpQAtydzsav9SfxfvGRjiX1qGBict/H2WRbro8OvMpq2EN
Fx2HnMRXSEaLxtQ0wLOkF/AGe5i3T8aRBts9pkMivNlchR4MFiKs6U/wMHa0/LUX
xKC6BI+byMxiOzT6+gnyvXtuGnrYEs+uF90nD55px1xzGs7b8OJxr4CenS2cb4A8
5ll65uz7XtVued0LyOQCaQw=
-----END CERTIFICATE-----
