Certificate:
    Data:
        Version: 3 (0x2)
        Serial Number: 2 (0x2)
    Signature Algorithm: sha256WithRSAEncryption
        Issuer: C=US, ST=CA, L=Sunnyvale, O=Real Time Innovations, CN=RTI CA/emailAddress=secure@rti.com
        Validity
            Not Before: Sep 28 10:03:16 2018 GMT
            Not After : Sep 25 10:03:16 2028 GMT
        Subject: C=US, ST=CA, O=Real Time Innovations, CN=perftest/emailAddress=sub@rti.com
        Subject Public Key Info:
            Public Key Algorithm: rsaEncryption
                Public-Key: (2048 bit)
                Modulus:
                    00:c9:61:54:e4:93:57:f0:14:bd:cc:3c:f5:eb:6d:
                    06:9e:f9:7c:e4:a6:d9:f6:b2:4a:96:71:ed:75:72:
                    1e:85:25:0e:fe:0f:22:e9:ff:aa:4d:ea:34:52:76:
                    2e:58:1a:6c:da:fb:b3:19:47:03:e5:47:ee:3e:73:
                    b1:69:20:3e:de:76:9d:b3:5c:26:b7:ff:f8:ab:d0:
                    39:ae:00:49:c7:9f:df:52:a1:ca:a1:17:96:14:32:
                    5f:fd:c3:97:ac:28:35:2e:89:9b:e3:8c:5d:5a:52:
                    76:70:15:11:aa:51:0a:86:4f:d8:d2:9d:7a:b2:ec:
                    cd:6b:ab:d0:e5:60:81:76:26:8e:0d:bd:f0:57:60:
                    70:f4:27:ae:13:94:82:5c:35:b4:19:0f:b3:d3:2c:
                    c6:e2:c2:b0:a5:54:5e:fd:b6:f5:f0:60:44:92:d4:
                    10:58:eb:b7:98:05:06:d9:8d:fd:d2:40:b8:d3:4a:
                    e3:b9:ac:7a:bc:4d:83:23:b2:e5:e1:e2:b2:9d:5a:
                    04:76:e1:6f:72:1a:a3:60:be:fd:38:ef:3f:b1:a2:
                    07:8d:f8:ae:35:d4:a7:fd:ef:40:3b:7a:dc:9d:89:
                    9f:60:90:03:e3:5d:de:24:c3:fc:80:21:c2:cd:01:
                    dd:4f:66:d2:4c:8b:0d:04:85:11:32:eb:45:40:f0:
                    dd:c1
                Exponent: 65537 (0x10001)
        X509v3 extensions:
            X509v3 Basic Constraints: 
                CA:FALSE
            Netscape Comment: 
                OpenSSL Generated Certificate
            X509v3 Subject Key Identifier: 
                76:1B:6D:2B:94:3E:45:F2:FC:A8:CB:0E:D2:32:57:86:85:02:93:55
            X509v3 Authority Key Identifier: 
                DirName:/C=US/ST=CA/L=Sunnyvale/O=Real Time Innovations/CN=RTI CA/emailAddress=secure@rti.com
                serial:8F:41:EA:D2:2B:2C:E3:21

    Signature Algorithm: sha256WithRSAEncryption
         21:ce:d4:f5:90:3d:3f:18:46:dd:ab:5e:a6:1f:72:c1:e2:ac:
         a2:30:46:36:75:82:d7:16:44:bf:02:0f:ff:05:6f:3c:25:79:
         0e:5d:9b:ac:5c:ed:85:bf:9e:0d:f7:ce:28:7b:23:0f:f4:b1:
         8a:e3:d1:ac:50:63:40:d4:d4:64:57:cf:1c:01:dc:cd:55:8b:
         52:64:62:a7:fa:94:94:07:31:fb:0e:69:5d:ec:52:74:de:8c:
         3c:ad:6e:f9:29:67:89:e7:3b:a6:aa:42:92:73:6d:53:cd:48:
         9f:d0:b8:6b:b0:f8:b8:27:49:8a:61:86:05:1a:2c:2b:4c:35:
         4c:29:2c:90:f0:92:eb:18:1c:25:d3:9c:c9:a4:e5:bc:2d:b8:
         85:73:0c:07:a1:2e:21:4a:16:36:9b:83:26:1f:c7:77:e5:f0:
         a3:c1:a0:9b:14:f4:f5:34:22:ae:8b:06:78:67:0b:de:70:f2:
         6f:2a:3b:74:78:25:f5:c7:24:b0:a1:63:a1:8a:14:a0:c7:c5:
         dc:00:44:85:29:5b:a6:98:03:70:7a:eb:d2:fc:bb:6a:53:94:
         2c:31:3d:bf:18:28:61:fa:2e:5c:58:47:03:86:39:85:0e:22:
         71:c3:eb:0d:2a:b8:78:c8:b6:34:20:1b:8e:41:c7:ae:cf:f4:
         2d:93:d5:74
-----BEGIN CERTIFICATE-----
MIIEXTCCA0WgAwIBAgIBAjANBgkqhkiG9w0BAQsFADB+MQswCQYDVQQGEwJVUzEL
MAkGA1UECAwCQ0ExEjAQBgNVBAcMCVN1bm55dmFsZTEeMBwGA1UECgwVUmVhbCBU
aW1lIElubm92YXRpb25zMQ8wDQYDVQQDDAZSVEkgQ0ExHTAbBgkqhkiG9w0BCQEW
DnNlY3VyZUBydGkuY29tMB4XDTE4MDkyODEwMDMxNloXDTI4MDkyNTEwMDMxNlow
aTELMAkGA1UEBhMCVVMxCzAJBgNVBAgMAkNBMR4wHAYDVQQKDBVSZWFsIFRpbWUg
SW5ub3ZhdGlvbnMxETAPBgNVBAMMCHBlcmZ0ZXN0MRowGAYJKoZIhvcNAQkBFgtz
dWJAcnRpLmNvbTCCASIwDQYJKoZIhvcNAQEBBQADggEPADCCAQoCggEBAMlhVOST
V/AUvcw89ettBp75fOSm2faySpZx7XVyHoUlDv4PIun/qk3qNFJ2LlgabNr7sxlH
A+VH7j5zsWkgPt52nbNcJrf/+KvQOa4AScef31KhyqEXlhQyX/3Dl6woNS6Jm+OM
XVpSdnAVEapRCoZP2NKderLszWur0OVggXYmjg298FdgcPQnrhOUglw1tBkPs9Ms
xuLCsKVUXv229fBgRJLUEFjrt5gFBtmN/dJAuNNK47mserxNgyOy5eHisp1aBHbh
b3Iao2C+/TjvP7GiB434rjXUp/3vQDt63J2Jn2CQA+Nd3iTD/IAhws0B3U9m0kyL
DQSFETLrRUDw3cECAwEAAaOB+jCB9zAJBgNVHRMEAjAAMCwGCWCGSAGG+EIBDQQf
Fh1PcGVuU1NMIEdlbmVyYXRlZCBDZXJ0aWZpY2F0ZTAdBgNVHQ4EFgQUdhttK5Q+
RfL8qMsO0jJXhoUCk1UwgZwGA1UdIwSBlDCBkaGBg6SBgDB+MQswCQYDVQQGEwJV
UzELMAkGA1UECAwCQ0ExEjAQBgNVBAcMCVN1bm55dmFsZTEeMBwGA1UECgwVUmVh
bCBUaW1lIElubm92YXRpb25zMQ8wDQYDVQQDDAZSVEkgQ0ExHTAbBgkqhkiG9w0B
CQEWDnNlY3VyZUBydGkuY29tggkAj0Hq0iss4yEwDQYJKoZIhvcNAQELBQADggEB
ACHO1PWQPT8YRt2rXqYfcsHirKIwRjZ1gtcWRL8CD/8FbzwleQ5dm6xc7YW/ng33
zih7Iw/0sYrj0axQY0DU1GRXzxwB3M1Vi1JkYqf6lJQHMfsOaV3sUnTejDytbvkp
Z4nnO6aqQpJzbVPNSJ/QuGuw+LgnSYphhgUaLCtMNUwpLJDwkusYHCXTnMmk5bwt
uIVzDAehLiFKFjabgyYfx3fl8KPBoJsU9PU0Iq6LBnhnC95w8m8qO3R4JfXHJLCh
Y6GKFKDHxdwARIUpW6aYA3B669L8u2pTlCwxPb8YKGH6LlxYRwOGOYUOInHD6w0q
uHjItjQgG45Bx67P9C2T1XQ=
-----END CERTIFICATE-----
