Certificate:
    Data:
        Version: 3 (0x2)
        Serial Number: 2 (0x2)
    Signature Algorithm: sha256WithRSAEncryption
        Issuer: C=US, ST=CA, L=Sunnyvale, O=Real Time Innovations, CN=RTI CA/emailAddress=secure@rti.com
        Validity
            Not Before: Sep 28 09:04:15 2018 GMT
            Not After : Sep 25 09:04:15 2028 GMT
        Subject: C=US, ST=CA, O=Real Time Innovations, CN=perftest/emailAddress=sub@rti.com
        Subject Public Key Info:
            Public Key Algorithm: rsaEncryption
                Public-Key: (2048 bit)
                Modulus:
                    00:e9:c1:8e:62:f1:4c:26:80:60:38:d3:7b:14:80:
                    be:d7:c7:68:d0:fb:02:f8:50:a0:d9:6c:bd:05:44:
                    89:58:5c:d6:b1:a8:50:58:b4:24:b5:63:dd:a1:12:
                    59:c2:5a:bb:66:e5:a8:1b:1d:24:b0:c4:8b:4b:31:
                    07:2a:26:94:d2:e8:b3:b3:26:95:b1:ba:a2:73:bf:
                    fa:f6:77:8a:84:45:55:c1:39:62:31:4f:4d:95:fc:
                    a9:96:c8:fd:6b:77:ec:47:3f:1e:f5:d5:42:fb:f3:
                    bf:d5:82:1f:fb:76:03:9a:66:28:e8:de:18:49:7e:
                    be:c0:cb:e1:50:25:e9:69:f8:56:db:bd:ed:6b:0f:
                    bc:9e:d8:d7:66:c5:c2:eb:75:00:e3:0a:fc:35:bc:
                    2d:af:99:bc:3a:bc:e9:20:5c:b8:47:35:28:6c:5b:
                    47:0c:9b:1b:b7:84:f9:1a:70:46:07:d2:f8:8e:b3:
                    04:2d:e8:5b:46:fe:8d:fd:c7:93:b6:60:64:fd:e9:
                    90:41:e2:45:e7:db:b1:f5:93:2f:14:19:a1:91:25:
                    d5:b6:6b:05:c6:79:01:50:8d:0a:e1:d2:26:a8:54:
                    a3:f8:dc:49:54:d8:8c:e3:0b:4a:04:26:66:a0:64:
                    51:c1:2e:3d:8b:03:28:94:ff:c7:1c:05:72:1f:e4:
                    52:57
                Exponent: 65537 (0x10001)
        X509v3 extensions:
            X509v3 Basic Constraints: 
                CA:FALSE
            Netscape Comment: 
                OpenSSL Generated Certificate
            X509v3 Subject Key Identifier: 
                BB:DF:B0:44:47:3A:B6:2E:87:AE:2F:B5:1C:3C:B2:34:60:05:B3:6B
            X509v3 Authority Key Identifier: 
                DirName:/C=US/ST=CA/L=Sunnyvale/O=Real Time Innovations/CN=RTI CA/emailAddress=secure@rti.com
                serial:D8:11:42:65:93:B5:6A:FA

    Signature Algorithm: sha256WithRSAEncryption
         50:42:27:b0:e8:d6:8d:a2:fb:c7:8c:a9:3b:4c:df:44:5b:ff:
         fc:65:47:c0:64:06:d3:34:98:a1:0c:c9:e1:64:fd:01:b4:06:
         d8:e9:a8:1b:aa:be:d8:ec:3c:b0:c3:45:1a:76:a0:21:a0:ef:
         0d:c7:73:ce:43:f7:a1:8f:4a:9e:56:34:94:9e:04:d1:be:22:
         1d:af:9e:80:70:2a:ac:15:54:13:c4:22:dd:bd:05:0e:30:2c:
         cc:16:8c:b4:74:b1:73:08:33:bf:dd:45:04:20:f5:78:a8:0e:
         9e:a7:68:76:c5:24:6b:45:3a:70:f3:b5:79:98:e6:23:b4:1b:
         fb:d9:03:58:34:20:b2:1d:b9:b5:d2:8e:d7:e8:33:20:2e:b6:
         4a:6f:c0:a4:cd:25:c3:db:bb:cc:e6:07:14:1f:3e:ab:a6:5a:
         c8:81:73:90:46:2e:b3:32:5b:24:7e:d4:e9:6d:0d:2e:31:62:
         6b:75:7a:ac:6e:3f:5d:14:e2:df:79:7d:22:71:ff:65:a5:9e:
         16:e9:75:d7:85:7a:65:86:0d:a4:1d:8c:b7:c2:2c:3b:1f:75:
         ef:c5:37:68:ac:ad:d5:d7:bc:64:74:08:21:92:ae:09:d3:37:
         6b:7c:05:2d:5d:ee:4a:47:05:9f:00:bb:a6:16:84:af:0f:8d:
         10:5a:cc:7e
-----BEGIN CERTIFICATE-----
MIIEXTCCA0WgAwIBAgIBAjANBgkqhkiG9w0BAQsFADB+MQswCQYDVQQGEwJVUzEL
MAkGA1UECAwCQ0ExEjAQBgNVBAcMCVN1bm55dmFsZTEeMBwGA1UECgwVUmVhbCBU
aW1lIElubm92YXRpb25zMQ8wDQYDVQQDDAZSVEkgQ0ExHTAbBgkqhkiG9w0BCQEW
DnNlY3VyZUBydGkuY29tMB4XDTE4MDkyODA5MDQxNVoXDTI4MDkyNTA5MDQxNVow
aTELMAkGA1UEBhMCVVMxCzAJBgNVBAgMAkNBMR4wHAYDVQQKDBVSZWFsIFRpbWUg
SW5ub3ZhdGlvbnMxETAPBgNVBAMMCHBlcmZ0ZXN0MRowGAYJKoZIhvcNAQkBFgtz
dWJAcnRpLmNvbTCCASIwDQYJKoZIhvcNAQEBBQADggEPADCCAQoCggEBAOnBjmLx
TCaAYDjTexSAvtfHaND7AvhQoNlsvQVEiVhc1rGoUFi0JLVj3aESWcJau2blqBsd
JLDEi0sxByomlNLos7MmlbG6onO/+vZ3ioRFVcE5YjFPTZX8qZbI/Wt37Ec/HvXV
Qvvzv9WCH/t2A5pmKOjeGEl+vsDL4VAl6Wn4Vtu97WsPvJ7Y12bFwut1AOMK/DW8
La+ZvDq86SBcuEc1KGxbRwybG7eE+RpwRgfS+I6zBC3oW0b+jf3Hk7ZgZP3pkEHi
RefbsfWTLxQZoZEl1bZrBcZ5AVCNCuHSJqhUo/jcSVTYjOMLSgQmZqBkUcEuPYsD
KJT/xxwFch/kUlcCAwEAAaOB+jCB9zAJBgNVHRMEAjAAMCwGCWCGSAGG+EIBDQQf
Fh1PcGVuU1NMIEdlbmVyYXRlZCBDZXJ0aWZpY2F0ZTAdBgNVHQ4EFgQUu9+wREc6
ti6Hri+1HDyyNGAFs2swgZwGA1UdIwSBlDCBkaGBg6SBgDB+MQswCQYDVQQGEwJV
UzELMAkGA1UECAwCQ0ExEjAQBgNVBAcMCVN1bm55dmFsZTEeMBwGA1UECgwVUmVh
bCBUaW1lIElubm92YXRpb25zMQ8wDQYDVQQDDAZSVEkgQ0ExHTAbBgkqhkiG9w0B
CQEWDnNlY3VyZUBydGkuY29tggkA2BFCZZO1avowDQYJKoZIhvcNAQELBQADggEB
AFBCJ7Do1o2i+8eMqTtM30Rb//xlR8BkBtM0mKEMyeFk/QG0BtjpqBuqvtjsPLDD
RRp2oCGg7w3Hc85D96GPSp5WNJSeBNG+Ih2vnoBwKqwVVBPEIt29BQ4wLMwWjLR0
sXMIM7/dRQQg9XioDp6naHbFJGtFOnDztXmY5iO0G/vZA1g0ILIdubXSjtfoMyAu
tkpvwKTNJcPbu8zmBxQfPqumWsiBc5BGLrMyWyR+1OltDS4xYmt1eqxuP10U4t95
fSJx/2WlnhbpddeFemWGDaQdjLfCLDsfde/FN2isrdXXvGR0CCGSrgnTN2t8BS1d
7kpHBZ8Au6YWhK8PjRBazH4=
-----END CERTIFICATE-----
